(lp0
(lp1
F0.8846153846153846
aF0.8846153846153846
aF0.8846153846153846
aF0.8846153846153846
aF0.8846153846153846
aF0.8846153846153846
aF0.8846153846153846
aF0.8846153846153846
aF0.8846153846153846
aF0.8846153846153846
aF0.9038461538461539
aF0.8846153846153846
aF0.8846153846153846
aF0.8846153846153846
aF0.8846153846153846
aF0.9038461538461539
aF0.8846153846153846
aF0.8846153846153846
aF0.8461538461538461
aF0.8846153846153846
aF0.8846153846153846
aF0.8653846153846154
aF0.8846153846153846
aF0.8846153846153846
aF0.8846153846153846
aF0.8846153846153846
aF0.9038461538461539
aF0.8846153846153846
aF0.8846153846153846
aF0.8846153846153846
aF0.8846153846153846
aF0.8846153846153846
aF0.8846153846153846
aF0.8846153846153846
aF0.8846153846153846
aF0.9038461538461539
aF0.8846153846153846
aF0.8846153846153846
aF0.8846153846153846
aF0.8846153846153846
aF0.9038461538461539
aF0.9230769230769231
aF0.8846153846153846
aF0.8846153846153846
aF0.8846153846153846
aF0.9230769230769231
aF0.8653846153846154
aF0.8653846153846154
aF0.8846153846153846
aF0.8846153846153846
aF0.9038461538461539
aF0.8846153846153846
aF0.9038461538461539
aF0.8846153846153846
aF0.8846153846153846
aF0.9038461538461539
aF0.8846153846153846
aF0.8653846153846154
aF0.8846153846153846
aF0.8846153846153846
aF0.8653846153846154
aF0.9038461538461539
aF0.8846153846153846
aF0.8846153846153846
aF0.8653846153846154
aF0.8846153846153846
aF0.8653846153846154
aF0.9038461538461539
aF0.8846153846153846
aF0.8653846153846154
aF0.9038461538461539
aF0.9038461538461539
aF0.8846153846153846
aF0.8846153846153846
aF0.8653846153846154
aF0.9038461538461539
aF0.8653846153846154
aF0.9038461538461539
aF0.8653846153846154
aF0.8846153846153846
aF0.9038461538461539
aF0.9230769230769231
aF0.8846153846153846
aF0.8846153846153846
aF0.8846153846153846
aF0.9038461538461539
aF0.9038461538461539
aF0.8846153846153846
aF0.8846153846153846
aF0.8846153846153846
aF0.9230769230769231
aF0.9038461538461539
aF0.9038461538461539
aF0.8846153846153846
aF0.8846153846153846
aF0.9038461538461539
aF0.9038461538461539
aF0.9038461538461539
aF0.8846153846153846
aF0.8846153846153846
aF0.9038461538461539
aF0.8846153846153846
aF0.8846153846153846
aF0.8846153846153846
aF0.8846153846153846
aF0.8846153846153846
aF0.9038461538461539
aF0.9038461538461539
aF0.9038461538461539
aF0.9038461538461539
aF0.8846153846153846
aF0.9038461538461539
aF0.9038461538461539
aF0.9038461538461539
aF0.9038461538461539
aF0.9230769230769231
aF0.9230769230769231
aF0.9230769230769231
aF0.9230769230769231
aF0.9038461538461539
aF0.9038461538461539
aF0.9230769230769231
aF0.9230769230769231
aF0.8846153846153846
aF0.9230769230769231
aF0.8846153846153846
aF0.9038461538461539
aF0.9230769230769231
aF0.9230769230769231
aF0.9230769230769231
aF0.8846153846153846
aF0.8846153846153846
aF0.8846153846153846
aF0.9230769230769231
aF0.9230769230769231
aF0.9230769230769231
aF0.8846153846153846
aF0.8846153846153846
aF0.8846153846153846
aF0.9038461538461539
aF0.8846153846153846
aF0.8846153846153846
aF0.8846153846153846
aF0.8846153846153846
aF0.8846153846153846
aF0.8846153846153846
aF0.8846153846153846
aF0.8846153846153846
aF0.9038461538461539
aF0.9038461538461539
aF0.9038461538461539
aF0.9038461538461539
aF0.9038461538461539
aF0.8846153846153846
aF0.9038461538461539
aF0.9230769230769231
aF0.9038461538461539
aF0.9038461538461539
aF0.9038461538461539
aF0.9038461538461539
aF0.9038461538461539
aF0.8846153846153846
aF0.9038461538461539
aF0.9038461538461539
aF0.9038461538461539
aF0.8846153846153846
aF0.9038461538461539
aF0.8846153846153846
aF0.8846153846153846
aF0.8846153846153846
aF0.9038461538461539
aF0.8846153846153846
aF0.8846153846153846
aF0.9038461538461539
aF0.9038461538461539
aF0.9038461538461539
aF0.9038461538461539
aF0.8846153846153846
aF0.9038461538461539
aF0.9038461538461539
aF0.9038461538461539
aF0.9038461538461539
aF0.9038461538461539
aF0.9038461538461539
aF0.9038461538461539
aF0.8846153846153846
aF0.9038461538461539
aF0.9038461538461539
aF0.9038461538461539
aF0.9038461538461539
aF0.9038461538461539
aF0.9038461538461539
aF0.9038461538461539
aF0.9038461538461539
aF0.9038461538461539
aF0.9038461538461539
aF0.9038461538461539
aF0.9230769230769231
aF0.9038461538461539
aF0.9038461538461539
aF0.9038461538461539
aF0.9038461538461539
aF0.9038461538461539
aF0.9038461538461539
aF0.9038461538461539
aF0.9038461538461539
aF0.9038461538461539
aF0.9038461538461539
aF0.9038461538461539
aF0.9230769230769231
aF0.9230769230769231
aF0.9038461538461539
aF0.9038461538461539
aF0.9038461538461539
aF0.9038461538461539
aF0.9038461538461539
aF0.9038461538461539
aF0.9038461538461539
aF0.9038461538461539
aF0.9038461538461539
aF0.9038461538461539
aF0.9230769230769231
aF0.9038461538461539
aF0.9230769230769231
aF0.9230769230769231
aF0.9038461538461539
aF0.9038461538461539
aF0.9038461538461539
aF0.9230769230769231
aF0.9423076923076923
aF0.8846153846153846
aF0.9038461538461539
aF0.9230769230769231
aF0.9230769230769231
aF0.9038461538461539
aF0.9230769230769231
aF0.9038461538461539
aF0.9038461538461539
aF0.9230769230769231
aF0.9038461538461539
aF0.9230769230769231
aF0.9038461538461539
aF0.9038461538461539
aF0.9038461538461539
aF0.9038461538461539
aF0.9038461538461539
aF0.9038461538461539
aF0.9038461538461539
aF0.9038461538461539
aF0.9230769230769231
aF0.9038461538461539
aF0.9038461538461539
aF0.9038461538461539
aF0.9038461538461539
aF0.9230769230769231
aF0.9038461538461539
aF0.9038461538461539
aF0.9038461538461539
aF0.9038461538461539
aF0.9230769230769231
aF0.8846153846153846
aF0.9038461538461539
aF0.9038461538461539
aF0.9038461538461539
aF0.9038461538461539
aF0.8846153846153846
aF0.9230769230769231
aF0.9038461538461539
aF0.9038461538461539
aF0.9038461538461539
aF0.8846153846153846
aF0.9038461538461539
aF0.9038461538461539
aF0.9038461538461539
aF0.9038461538461539
aF0.8846153846153846
aF0.9038461538461539
aF0.9038461538461539
aF0.9038461538461539
aF0.9038461538461539
aF0.8846153846153846
aF0.9038461538461539
aF0.9038461538461539
aF0.9038461538461539
aF0.9038461538461539
aF0.8846153846153846
aF0.9038461538461539
aF0.9038461538461539
aF0.9038461538461539
aF0.9038461538461539
aF0.8846153846153846
aF0.9038461538461539
aF0.9038461538461539
aF0.9038461538461539
aF0.9230769230769231
aF0.8846153846153846
aF0.9230769230769231
aF0.9038461538461539
aF0.9038461538461539
aF0.9230769230769231
aF0.9423076923076923
aF0.9423076923076923
aF0.8846153846153846
aF0.9038461538461539
aF0.8846153846153846
aF0.9423076923076923
aF0.9423076923076923
aF0.9423076923076923
aF0.9423076923076923
aF0.9423076923076923
aF0.9423076923076923
aF0.9423076923076923
aF0.9423076923076923
aF0.9423076923076923
aF0.9423076923076923
aF0.9423076923076923
aF0.9423076923076923
aF0.9423076923076923
aF0.9423076923076923
aF0.9423076923076923
aF0.9423076923076923
aF0.9423076923076923
aF0.9423076923076923
aF0.9423076923076923
aF0.9423076923076923
aF0.9423076923076923
aF0.9423076923076923
aF0.9423076923076923
aF0.9423076923076923
aF0.9423076923076923
aF0.9423076923076923
aF0.9423076923076923
aF0.9423076923076923
aF0.9423076923076923
aF0.9423076923076923
aF0.9423076923076923
aF0.9423076923076923
aF0.9423076923076923
aF0.9423076923076923
aF0.9423076923076923
aF0.9423076923076923
aF0.9423076923076923
aF0.9423076923076923
aF0.9423076923076923
aF0.9423076923076923
aF0.9423076923076923
aF0.9423076923076923
aF0.9423076923076923
aF0.9423076923076923
aF0.9423076923076923
aF0.9423076923076923
aF0.9423076923076923
aF0.9423076923076923
aF0.9423076923076923
aF0.9423076923076923
aF0.9423076923076923
aF0.9423076923076923
aF0.9423076923076923
aF0.9423076923076923
aF0.9423076923076923
aF0.9423076923076923
aF0.9423076923076923
aF0.9423076923076923
aF0.9423076923076923
aF0.9423076923076923
aF0.9423076923076923
aF0.9423076923076923
aF0.9423076923076923
aF0.9423076923076923
aF0.9423076923076923
aF0.9423076923076923
aF0.9423076923076923
aF0.9423076923076923
aF0.9423076923076923
aF0.9423076923076923
aF0.9423076923076923
aF0.9423076923076923
aF0.9423076923076923
aF0.9423076923076923
aF0.9423076923076923
aF0.8653846153846154
aF0.9423076923076923
aF0.9423076923076923
aF0.9423076923076923
aF0.9423076923076923
aF0.8653846153846154
aF0.9423076923076923
aF0.9423076923076923
aF0.9423076923076923
aF0.9423076923076923
aF0.9423076923076923
aF0.9423076923076923
aF0.9423076923076923
aF0.9423076923076923
aF0.9423076923076923
aF0.8653846153846154
aF0.9423076923076923
aF0.9423076923076923
aF0.9423076923076923
aF0.9423076923076923
aF0.9230769230769231
aF0.9230769230769231
aF0.9230769230769231
aF0.9230769230769231
aF0.9230769230769231
aF0.9230769230769231
aF0.9230769230769231
aF0.9230769230769231
aF0.9230769230769231
aF0.9230769230769231
aF0.9230769230769231
aF0.9230769230769231
aF0.9230769230769231
aF0.9230769230769231
aF0.9230769230769231
aF0.9230769230769231
aF0.9230769230769231
aF0.9230769230769231
aF0.9230769230769231
aF0.9230769230769231
aF0.9230769230769231
aF0.9230769230769231
aF0.9230769230769231
aF0.9230769230769231
aF0.9230769230769231
aF0.9230769230769231
aF0.9230769230769231
aF0.9230769230769231
aF0.9230769230769231
aF0.9230769230769231
aF0.9230769230769231
aF0.9230769230769231
aF0.9230769230769231
aF0.9230769230769231
aF0.9230769230769231
aF0.9230769230769231
aF0.9230769230769231
aF0.9230769230769231
aF0.9230769230769231
aF0.9230769230769231
aF0.9230769230769231
aF0.9230769230769231
aF0.9230769230769231
aF0.9230769230769231
aF0.9230769230769231
aF0.9230769230769231
aF0.9230769230769231
aF0.9230769230769231
aF0.9230769230769231
aF0.9230769230769231
aF0.9230769230769231
aF0.9230769230769231
aF0.9230769230769231
aF0.9230769230769231
aF0.9230769230769231
aF0.9230769230769231
aF0.9230769230769231
aF0.9230769230769231
aF0.9230769230769231
aF0.9230769230769231
aF0.9230769230769231
aF0.9230769230769231
aF0.9230769230769231
aF0.9230769230769231
aF0.9230769230769231
aF0.9230769230769231
aF0.9230769230769231
aF0.9230769230769231
aF0.9230769230769231
aF0.9230769230769231
aF0.9230769230769231
aF0.9230769230769231
aF0.9230769230769231
aF0.9230769230769231
aF0.9230769230769231
aF0.9230769230769231
aF0.9038461538461539
aF0.9230769230769231
aF0.9230769230769231
aF0.9230769230769231
aF0.9230769230769231
aF0.9230769230769231
aF0.9038461538461539
aF0.9230769230769231
aF0.9230769230769231
aF0.9230769230769231
aF0.9230769230769231
aF0.9038461538461539
aF0.9230769230769231
aF0.9230769230769231
aF0.9230769230769231
aF0.9230769230769231
aF0.9038461538461539
aF0.9038461538461539
aF0.9230769230769231
aF0.9230769230769231
aF0.9230769230769231
aF0.9230769230769231
aF0.9038461538461539
aF0.9230769230769231
aF0.9230769230769231
aF0.8846153846153846
aF0.9038461538461539
aF0.8846153846153846
aF0.9038461538461539
aF0.9230769230769231
aF0.9230769230769231
aF0.8653846153846154
aF0.8846153846153846
aF0.9038461538461539
aF0.9230769230769231
aF0.9230769230769231
aF0.8653846153846154
aF0.9230769230769231
aF0.9230769230769231
aF0.8653846153846154
aF0.9230769230769231
aF0.9230769230769231
aF0.9230769230769231
aF0.9230769230769231
aF0.9230769230769231
aF0.9230769230769231
aF0.9230769230769231
aF0.9230769230769231
aF0.9230769230769231
aF0.8846153846153846
aF0.8846153846153846
aF0.9230769230769231
aF0.9230769230769231
aF0.9230769230769231
aF0.8846153846153846
aF0.8846153846153846
aF0.8846153846153846
aF0.8846153846153846
aF0.9230769230769231
aF0.9423076923076923
aF0.8846153846153846
aF0.8846153846153846
aF0.8846153846153846
aF0.8846153846153846
aF0.8846153846153846
aF0.9038461538461539
aF0.9038461538461539
aF0.8846153846153846
aF0.8846153846153846
aF0.8846153846153846
aF0.9038461538461539
aF0.9038461538461539
aF0.8846153846153846
aF0.8846153846153846
aF0.8846153846153846
aF0.9038461538461539
aF0.9038461538461539
aF0.8846153846153846
aF0.8846153846153846
aF0.9230769230769231
aF0.9038461538461539
aF0.9038461538461539
aF0.8846153846153846
aF0.8846153846153846
aF0.8653846153846154
aF0.9038461538461539
aF0.9038461538461539
aF0.9038461538461539
aF0.8846153846153846
aF0.8653846153846154
aF0.9038461538461539
aF0.9038461538461539
aF0.9038461538461539
aF0.9038461538461539
aF0.8653846153846154
aF0.9038461538461539
aF0.9038461538461539
aF0.9038461538461539
aF0.9038461538461539
aF0.8653846153846154
aF0.9038461538461539
aF0.9038461538461539
aF0.9038461538461539
aF0.9038461538461539
aF0.8653846153846154
aF0.9230769230769231
aF0.9038461538461539
aF0.9230769230769231
aF0.9038461538461539
aF0.8653846153846154
aF0.9230769230769231
aF0.9038461538461539
aF0.9230769230769231
aF0.9230769230769231
aF0.8653846153846154
aF0.9230769230769231
aF0.9038461538461539
aF0.9230769230769231
aF0.9230769230769231
aF0.8653846153846154
aF0.9230769230769231
aF0.9038461538461539
aF0.9230769230769231
aF0.9230769230769231
aF0.9230769230769231
aF0.9230769230769231
aF0.9230769230769231
aF0.9230769230769231
aF0.9038461538461539
aF0.8653846153846154
aF0.9230769230769231
aF0.9230769230769231
aF0.9230769230769231
aF0.9230769230769231
aF0.9230769230769231
aF0.9230769230769231
aF0.9230769230769231
aF0.9230769230769231
aF0.9038461538461539
aF0.9230769230769231
aF0.9230769230769231
aF0.9230769230769231
aF0.9230769230769231
aF0.9230769230769231
aF0.9230769230769231
aF0.9230769230769231
aF0.9230769230769231
aF0.9230769230769231
aF0.9230769230769231
aF0.8846153846153846
aF0.8846153846153846
aF0.9230769230769231
aF0.9230769230769231
aF0.9230769230769231
aF0.8846153846153846
aF0.9038461538461539
aF0.8653846153846154
aF0.9230769230769231
aF0.9230769230769231
aF0.9230769230769231
aF0.9230769230769231
aF0.9230769230769231
aF0.9230769230769231
aF0.9230769230769231
aF0.9230769230769231
aF0.9230769230769231
aF0.9230769230769231
aF0.9230769230769231
aF0.9230769230769231
aF0.9230769230769231
aF0.9230769230769231
aF0.9230769230769231
aF0.9230769230769231
aF0.9230769230769231
aF0.8461538461538461
aF0.9230769230769231
aF0.8653846153846154
aF0.9230769230769231
aF0.9230769230769231
aF0.9230769230769231
aF0.9230769230769231
aF0.9230769230769231
aF0.9230769230769231
aF0.9230769230769231
aF0.9230769230769231
aF0.9230769230769231
aF0.9230769230769231
aF0.9230769230769231
aF0.9230769230769231
aF0.9230769230769231
aF0.9230769230769231
aF0.9230769230769231
aF0.8461538461538461
aF0.9230769230769231
aF0.9230769230769231
aF0.9230769230769231
aF0.9230769230769231
aF0.9230769230769231
aF0.9230769230769231
aF0.8653846153846154
aF0.9230769230769231
aF0.9230769230769231
aF0.9230769230769231
aF0.9230769230769231
aF0.8653846153846154
aF0.9230769230769231
aF0.9230769230769231
aF0.9230769230769231
aF0.9230769230769231
aF0.9230769230769231
aF0.9230769230769231
aF0.9230769230769231
aF0.9230769230769231
aF0.9230769230769231
aF0.9230769230769231
aF0.9230769230769231
aF0.9230769230769231
aF0.9230769230769231
aF0.9230769230769231
aF0.9230769230769231
aF0.9230769230769231
aF0.9230769230769231
aF0.9230769230769231
aF0.9230769230769231
aF0.9230769230769231
aF0.8846153846153846
aF0.9230769230769231
aF0.9230769230769231
aF0.9230769230769231
aF0.9230769230769231
aF0.9038461538461539
aF0.8846153846153846
aF0.9038461538461539
aF0.9038461538461539
aF0.9230769230769231
aF0.8461538461538461
aF0.9230769230769231
aF0.9230769230769231
aF0.9230769230769231
aF0.8846153846153846
aF0.8846153846153846
aF0.9038461538461539
aF0.9230769230769231
aF0.9230769230769231
aF0.8653846153846154
aF0.9038461538461539
aF0.9230769230769231
aF0.9230769230769231
aF0.9230769230769231
aF0.8653846153846154
aF0.9038461538461539
aF0.9423076923076923
aF0.9230769230769231
aF0.9230769230769231
aF0.8846153846153846
aF0.9038461538461539
aF0.9230769230769231
aF0.9230769230769231
aF0.9230769230769231
aF0.8653846153846154
aF0.9423076923076923
aF0.9230769230769231
aF0.9230769230769231
aF0.9230769230769231
aF0.9038461538461539
aF0.8653846153846154
aF0.9038461538461539
aF0.9230769230769231
aF0.9230769230769231
aF0.9038461538461539
aF0.8846153846153846
aF0.9230769230769231
aF0.9230769230769231
aF0.9230769230769231
aF0.8461538461538461
aF0.8461538461538461
aF0.9230769230769231
aF0.9038461538461539
aF0.9230769230769231
aF0.9038461538461539
aF0.8461538461538461
aF0.9038461538461539
aF0.9038461538461539
aF0.9230769230769231
aF0.9038461538461539
aF0.8846153846153846
aF0.8653846153846154
aF0.9038461538461539
aF0.9230769230769231
aF0.8846153846153846
aF0.8846153846153846
aF0.9038461538461539
aF0.9230769230769231
aF0.9230769230769231
aF0.8846153846153846
aF0.9038461538461539
aF0.9038461538461539
aF0.9230769230769231
aF0.9230769230769231
aF0.8846153846153846
aF0.8653846153846154
aF0.9038461538461539
aF0.9230769230769231
aF0.9038461538461539
aF0.8846153846153846
aF0.8653846153846154
aF0.9038461538461539
aF0.9230769230769231
aF0.9230769230769231
aF0.8846153846153846
aF0.8653846153846154
aF0.9038461538461539
aF0.9038461538461539
aF0.9038461538461539
aF0.8846153846153846
aF0.8653846153846154
aF0.9038461538461539
aF0.9038461538461539
aF0.9038461538461539
aF0.9230769230769231
aF0.8653846153846154
aF0.9038461538461539
aF0.9038461538461539
aF0.9230769230769231
aF0.9038461538461539
aF0.8846153846153846
aF0.9038461538461539
aF0.9038461538461539
aF0.9038461538461539
aF0.8846153846153846
aF0.9038461538461539
aF0.9038461538461539
aF0.9038461538461539
aF0.8653846153846154
aF0.8846153846153846
aF0.9038461538461539
aF0.9038461538461539
aF0.9038461538461539
aF0.9038461538461539
aF0.8846153846153846
aF0.8846153846153846
aF0.8846153846153846
aF0.9038461538461539
aF0.9038461538461539
aF0.8846153846153846
aF0.8846153846153846
aF0.8846153846153846
aF0.9038461538461539
aF0.8846153846153846
aF0.8846153846153846
aF0.8846153846153846
aF0.8846153846153846
aF0.8846153846153846
aF0.8846153846153846
aF0.8461538461538461
aF0.8846153846153846
aF0.8846153846153846
aF0.9038461538461539
aF0.8846153846153846
aF0.8653846153846154
aF0.8461538461538461
aF0.8076923076923077
aF0.8846153846153846
aF0.8846153846153846
aF0.8076923076923077
aF0.8269230769230769
aF0.8653846153846154
aF0.8846153846153846
aF0.8846153846153846
aF0.8461538461538461
aF0.8461538461538461
aF0.8653846153846154
aF0.8653846153846154
aF0.9038461538461539
aF0.8461538461538461
aF0.8076923076923077
aF0.8461538461538461
aF0.8269230769230769
aF0.9038461538461539
aF0.8269230769230769
aF0.7884615384615384
aF0.8846153846153846
aF0.8269230769230769
aF0.8846153846153846
aF0.8461538461538461
aF0.8269230769230769
aF0.8653846153846154
aF0.8269230769230769
aF0.8269230769230769
aF0.8461538461538461
aF0.8269230769230769
aF0.8461538461538461
aF0.8653846153846154
aF0.8461538461538461
aF0.7884615384615384
aF0.7884615384615384
aF0.8653846153846154
aF0.8653846153846154
aF0.8846153846153846
aF0.8076923076923077
aF0.8461538461538461
aF0.8461538461538461
aF0.8653846153846154
aF0.8846153846153846
aF0.8076923076923077
aF0.8269230769230769
aF0.8076923076923077
aF0.8461538461538461
aF0.8653846153846154
aF0.8269230769230769
aF0.8461538461538461
aF0.8269230769230769
aF0.8269230769230769
aF0.8461538461538461
aF0.8461538461538461
aF0.7884615384615384
aF0.8269230769230769
aF0.8269230769230769
aF0.8653846153846154
aF0.8461538461538461
aF0.8461538461538461
aF0.8076923076923077
aF0.8269230769230769
aF0.8653846153846154
aF0.9038461538461539
aF0.8846153846153846
aF0.9230769230769231
aF0.9038461538461539
aF0.9230769230769231
aF0.8653846153846154
aF0.9038461538461539
aF0.9038461538461539
aF0.8653846153846154
aF0.8846153846153846
aF0.8461538461538461
aF0.8653846153846154
aF0.8461538461538461
aF0.9038461538461539
aF0.9038461538461539
aF0.8461538461538461
aF0.8653846153846154
aF0.8461538461538461
aF0.8461538461538461
aF0.8653846153846154
aF0.8269230769230769
aF0.8269230769230769
aF0.8269230769230769
aF0.8653846153846154
aF0.8269230769230769
aF0.7692307692307693
aF0.8269230769230769
aF0.8269230769230769
aF0.8846153846153846
aF0.8846153846153846
aF0.7884615384615384
aF0.8269230769230769
aF0.8269230769230769
aF0.8461538461538461
aF0.8846153846153846
aF0.8269230769230769
aF0.8076923076923077
aF0.8269230769230769
aF0.8269230769230769
aF0.8269230769230769
aF0.7692307692307693
aF0.8461538461538461
aF0.8269230769230769
aF0.8269230769230769
aF0.8846153846153846
aF0.75
aF0.8461538461538461
aF0.8269230769230769
aF0.8461538461538461
aF0.8461538461538461
aF0.8461538461538461
aF0.8461538461538461
aF0.8269230769230769
aF0.8653846153846154
aF0.8269230769230769
aF0.8269230769230769
aF0.8461538461538461
aF0.8269230769230769
aF0.8653846153846154
aF0.8461538461538461
aF0.8076923076923077
aF0.8461538461538461
aF0.8269230769230769
aF0.8653846153846154
aF0.8653846153846154
aF0.8269230769230769
aF0.8269230769230769
aF0.8269230769230769
aF0.8653846153846154
aF0.8653846153846154
aF0.8269230769230769
aF0.8269230769230769
aF0.8269230769230769
aF0.8461538461538461
aF0.8269230769230769
aF0.8076923076923077
aF0.8269230769230769
aF0.8269230769230769
aF0.8653846153846154
aF0.8653846153846154
aF0.8076923076923077
aF0.8269230769230769
aF0.8269230769230769
aF0.8653846153846154
aF0.8269230769230769
aF0.8076923076923077
aF0.8269230769230769
aF0.8269230769230769
aF0.8653846153846154
aF0.8269230769230769
aF0.8269230769230769
aF0.8269230769230769
aF0.8269230769230769
aF0.8269230769230769
aF0.8269230769230769
aF0.8076923076923077
aF0.8269230769230769
aF0.8269230769230769
aF0.8269230769230769
aF0.8653846153846154
aa(lp2
(dp3
S'depth'
p4
I1
sS'random_seed'
p5
I1
sS'loss_function'
p6
S'Logloss'
p7
sS'eval_metric'
p8
S'AUC'
p9
sS'l2_leaf_reg'
p10
I1
sS'learning_rate'
p11
F0.01
sS'early_stopping_rounds'
p12
I200
sS'verbose'
p13
I1000
sa(dp14
g4
I1
sg5
I1
sg6
g7
sg8
g9
sg10
I3
sg11
F0.01
sg12
I200
sg13
I1000
sa(dp15
g4
I1
sg5
I1
sg6
g7
sg8
g9
sg10
I5
sg11
F0.01
sg12
I200
sg13
I1000
sa(dp16
g4
I1
sg5
I1
sg6
g7
sg8
g9
sg10
I7
sg11
F0.01
sg12
I200
sg13
I1000
sa(dp17
g4
I1
sg5
I1
sg6
g7
sg8
g9
sg10
I9
sg11
F0.01
sg12
I200
sg13
I1000
sa(dp18
g4
I1
sg5
I1
sg6
g7
sg8
g9
sg10
I1
sg11
F0.02
sg12
I200
sg13
I1000
sa(dp19
g4
I1
sg5
I1
sg6
g7
sg8
g9
sg10
I3
sg11
F0.02
sg12
I200
sg13
I1000
sa(dp20
g4
I1
sg5
I1
sg6
g7
sg8
g9
sg10
I5
sg11
F0.02
sg12
I200
sg13
I1000
sa(dp21
g4
I1
sg5
I1
sg6
g7
sg8
g9
sg10
I7
sg11
F0.02
sg12
I200
sg13
I1000
sa(dp22
g4
I1
sg5
I1
sg6
g7
sg8
g9
sg10
I9
sg11
F0.02
sg12
I200
sg13
I1000
sa(dp23
g4
I1
sg5
I1
sg6
g7
sg8
g9
sg10
I1
sg11
F0.03
sg12
I200
sg13
I1000
sa(dp24
g4
I1
sg5
I1
sg6
g7
sg8
g9
sg10
I3
sg11
F0.03
sg12
I200
sg13
I1000
sa(dp25
g4
I1
sg5
I1
sg6
g7
sg8
g9
sg10
I5
sg11
F0.03
sg12
I200
sg13
I1000
sa(dp26
g4
I1
sg5
I1
sg6
g7
sg8
g9
sg10
I7
sg11
F0.03
sg12
I200
sg13
I1000
sa(dp27
g4
I1
sg5
I1
sg6
g7
sg8
g9
sg10
I9
sg11
F0.03
sg12
I200
sg13
I1000
sa(dp28
g4
I1
sg5
I1
sg6
g7
sg8
g9
sg10
I1
sg11
F0.04
sg12
I200
sg13
I1000
sa(dp29
g4
I1
sg5
I1
sg6
g7
sg8
g9
sg10
I3
sg11
F0.04
sg12
I200
sg13
I1000
sa(dp30
g4
I1
sg5
I1
sg6
g7
sg8
g9
sg10
I5
sg11
F0.04
sg12
I200
sg13
I1000
sa(dp31
g4
I1
sg5
I1
sg6
g7
sg8
g9
sg10
I7
sg11
F0.04
sg12
I200
sg13
I1000
sa(dp32
g4
I1
sg5
I1
sg6
g7
sg8
g9
sg10
I9
sg11
F0.04
sg12
I200
sg13
I1000
sa(dp33
g4
I1
sg5
I1
sg6
g7
sg8
g9
sg10
I1
sg11
F0.05
sg12
I200
sg13
I1000
sa(dp34
g4
I1
sg5
I1
sg6
g7
sg8
g9
sg10
I3
sg11
F0.05
sg12
I200
sg13
I1000
sa(dp35
g4
I1
sg5
I1
sg6
g7
sg8
g9
sg10
I5
sg11
F0.05
sg12
I200
sg13
I1000
sa(dp36
g4
I1
sg5
I1
sg6
g7
sg8
g9
sg10
I7
sg11
F0.05
sg12
I200
sg13
I1000
sa(dp37
g4
I1
sg5
I1
sg6
g7
sg8
g9
sg10
I9
sg11
F0.05
sg12
I200
sg13
I1000
sa(dp38
g4
I1
sg5
I1
sg6
g7
sg8
g9
sg10
I1
sg11
F0.06
sg12
I200
sg13
I1000
sa(dp39
g4
I1
sg5
I1
sg6
g7
sg8
g9
sg10
I3
sg11
F0.06
sg12
I200
sg13
I1000
sa(dp40
g4
I1
sg5
I1
sg6
g7
sg8
g9
sg10
I5
sg11
F0.06
sg12
I200
sg13
I1000
sa(dp41
g4
I1
sg5
I1
sg6
g7
sg8
g9
sg10
I7
sg11
F0.06
sg12
I200
sg13
I1000
sa(dp42
g4
I1
sg5
I1
sg6
g7
sg8
g9
sg10
I9
sg11
F0.06
sg12
I200
sg13
I1000
sa(dp43
g4
I1
sg5
I1
sg6
g7
sg8
g9
sg10
I1
sg11
F0.07
sg12
I200
sg13
I1000
sa(dp44
g4
I1
sg5
I1
sg6
g7
sg8
g9
sg10
I3
sg11
F0.07
sg12
I200
sg13
I1000
sa(dp45
g4
I1
sg5
I1
sg6
g7
sg8
g9
sg10
I5
sg11
F0.07
sg12
I200
sg13
I1000
sa(dp46
g4
I1
sg5
I1
sg6
g7
sg8
g9
sg10
I7
sg11
F0.07
sg12
I200
sg13
I1000
sa(dp47
g4
I1
sg5
I1
sg6
g7
sg8
g9
sg10
I9
sg11
F0.07
sg12
I200
sg13
I1000
sa(dp48
g4
I1
sg5
I1
sg6
g7
sg8
g9
sg10
I1
sg11
F0.08
sg12
I200
sg13
I1000
sa(dp49
g4
I1
sg5
I1
sg6
g7
sg8
g9
sg10
I3
sg11
F0.08
sg12
I200
sg13
I1000
sa(dp50
g4
I1
sg5
I1
sg6
g7
sg8
g9
sg10
I5
sg11
F0.08
sg12
I200
sg13
I1000
sa(dp51
g4
I1
sg5
I1
sg6
g7
sg8
g9
sg10
I7
sg11
F0.08
sg12
I200
sg13
I1000
sa(dp52
g4
I1
sg5
I1
sg6
g7
sg8
g9
sg10
I9
sg11
F0.08
sg12
I200
sg13
I1000
sa(dp53
g4
I1
sg5
I1
sg6
g7
sg8
g9
sg10
I1
sg11
F0.09
sg12
I200
sg13
I1000
sa(dp54
g4
I1
sg5
I1
sg6
g7
sg8
g9
sg10
I3
sg11
F0.09
sg12
I200
sg13
I1000
sa(dp55
g4
I1
sg5
I1
sg6
g7
sg8
g9
sg10
I5
sg11
F0.09
sg12
I200
sg13
I1000
sa(dp56
g4
I1
sg5
I1
sg6
g7
sg8
g9
sg10
I7
sg11
F0.09
sg12
I200
sg13
I1000
sa(dp57
g4
I1
sg5
I1
sg6
g7
sg8
g9
sg10
I9
sg11
F0.09
sg12
I200
sg13
I1000
sa(dp58
g4
I1
sg5
I1
sg6
g7
sg8
g9
sg10
I1
sg11
F0.1
sg12
I200
sg13
I1000
sa(dp59
g4
I1
sg5
I1
sg6
g7
sg8
g9
sg10
I3
sg11
F0.1
sg12
I200
sg13
I1000
sa(dp60
g4
I1
sg5
I1
sg6
g7
sg8
g9
sg10
I5
sg11
F0.1
sg12
I200
sg13
I1000
sa(dp61
g4
I1
sg5
I1
sg6
g7
sg8
g9
sg10
I7
sg11
F0.1
sg12
I200
sg13
I1000
sa(dp62
g4
I1
sg5
I1
sg6
g7
sg8
g9
sg10
I9
sg11
F0.1
sg12
I200
sg13
I1000
sa(dp63
g4
I1
sg5
I1
sg6
g7
sg8
g9
sg10
I1
sg11
F0.11
sg12
I200
sg13
I1000
sa(dp64
g4
I1
sg5
I1
sg6
g7
sg8
g9
sg10
I3
sg11
F0.11
sg12
I200
sg13
I1000
sa(dp65
g4
I1
sg5
I1
sg6
g7
sg8
g9
sg10
I5
sg11
F0.11
sg12
I200
sg13
I1000
sa(dp66
g4
I1
sg5
I1
sg6
g7
sg8
g9
sg10
I7
sg11
F0.11
sg12
I200
sg13
I1000
sa(dp67
g4
I1
sg5
I1
sg6
g7
sg8
g9
sg10
I9
sg11
F0.11
sg12
I200
sg13
I1000
sa(dp68
g4
I1
sg5
I1
sg6
g7
sg8
g9
sg10
I1
sg11
F0.12
sg12
I200
sg13
I1000
sa(dp69
g4
I1
sg5
I1
sg6
g7
sg8
g9
sg10
I3
sg11
F0.12
sg12
I200
sg13
I1000
sa(dp70
g4
I1
sg5
I1
sg6
g7
sg8
g9
sg10
I5
sg11
F0.12
sg12
I200
sg13
I1000
sa(dp71
g4
I1
sg5
I1
sg6
g7
sg8
g9
sg10
I7
sg11
F0.12
sg12
I200
sg13
I1000
sa(dp72
g4
I1
sg5
I1
sg6
g7
sg8
g9
sg10
I9
sg11
F0.12
sg12
I200
sg13
I1000
sa(dp73
g4
I1
sg5
I1
sg6
g7
sg8
g9
sg10
I1
sg11
F0.13
sg12
I200
sg13
I1000
sa(dp74
g4
I1
sg5
I1
sg6
g7
sg8
g9
sg10
I3
sg11
F0.13
sg12
I200
sg13
I1000
sa(dp75
g4
I1
sg5
I1
sg6
g7
sg8
g9
sg10
I5
sg11
F0.13
sg12
I200
sg13
I1000
sa(dp76
g4
I1
sg5
I1
sg6
g7
sg8
g9
sg10
I7
sg11
F0.13
sg12
I200
sg13
I1000
sa(dp77
g4
I1
sg5
I1
sg6
g7
sg8
g9
sg10
I9
sg11
F0.13
sg12
I200
sg13
I1000
sa(dp78
g4
I1
sg5
I1
sg6
g7
sg8
g9
sg10
I1
sg11
F0.14
sg12
I200
sg13
I1000
sa(dp79
g4
I1
sg5
I1
sg6
g7
sg8
g9
sg10
I3
sg11
F0.14
sg12
I200
sg13
I1000
sa(dp80
g4
I1
sg5
I1
sg6
g7
sg8
g9
sg10
I5
sg11
F0.14
sg12
I200
sg13
I1000
sa(dp81
g4
I1
sg5
I1
sg6
g7
sg8
g9
sg10
I7
sg11
F0.14
sg12
I200
sg13
I1000
sa(dp82
g4
I1
sg5
I1
sg6
g7
sg8
g9
sg10
I9
sg11
F0.14
sg12
I200
sg13
I1000
sa(dp83
g4
I1
sg5
I1
sg6
g7
sg8
g9
sg10
I1
sg11
F0.15
sg12
I200
sg13
I1000
sa(dp84
g4
I1
sg5
I1
sg6
g7
sg8
g9
sg10
I3
sg11
F0.15
sg12
I200
sg13
I1000
sa(dp85
g4
I1
sg5
I1
sg6
g7
sg8
g9
sg10
I5
sg11
F0.15
sg12
I200
sg13
I1000
sa(dp86
g4
I1
sg5
I1
sg6
g7
sg8
g9
sg10
I7
sg11
F0.15
sg12
I200
sg13
I1000
sa(dp87
g4
I1
sg5
I1
sg6
g7
sg8
g9
sg10
I9
sg11
F0.15
sg12
I200
sg13
I1000
sa(dp88
g4
I1
sg5
I1
sg6
g7
sg8
g9
sg10
I1
sg11
F0.16
sg12
I200
sg13
I1000
sa(dp89
g4
I1
sg5
I1
sg6
g7
sg8
g9
sg10
I3
sg11
F0.16
sg12
I200
sg13
I1000
sa(dp90
g4
I1
sg5
I1
sg6
g7
sg8
g9
sg10
I5
sg11
F0.16
sg12
I200
sg13
I1000
sa(dp91
g4
I1
sg5
I1
sg6
g7
sg8
g9
sg10
I7
sg11
F0.16
sg12
I200
sg13
I1000
sa(dp92
g4
I1
sg5
I1
sg6
g7
sg8
g9
sg10
I9
sg11
F0.16
sg12
I200
sg13
I1000
sa(dp93
g4
I1
sg5
I1
sg6
g7
sg8
g9
sg10
I1
sg11
F0.17
sg12
I200
sg13
I1000
sa(dp94
g4
I1
sg5
I1
sg6
g7
sg8
g9
sg10
I3
sg11
F0.17
sg12
I200
sg13
I1000
sa(dp95
g4
I1
sg5
I1
sg6
g7
sg8
g9
sg10
I5
sg11
F0.17
sg12
I200
sg13
I1000
sa(dp96
g4
I1
sg5
I1
sg6
g7
sg8
g9
sg10
I7
sg11
F0.17
sg12
I200
sg13
I1000
sa(dp97
g4
I1
sg5
I1
sg6
g7
sg8
g9
sg10
I9
sg11
F0.17
sg12
I200
sg13
I1000
sa(dp98
g4
I1
sg5
I1
sg6
g7
sg8
g9
sg10
I1
sg11
F0.18
sg12
I200
sg13
I1000
sa(dp99
g4
I1
sg5
I1
sg6
g7
sg8
g9
sg10
I3
sg11
F0.18
sg12
I200
sg13
I1000
sa(dp100
g4
I1
sg5
I1
sg6
g7
sg8
g9
sg10
I5
sg11
F0.18
sg12
I200
sg13
I1000
sa(dp101
g4
I1
sg5
I1
sg6
g7
sg8
g9
sg10
I7
sg11
F0.18
sg12
I200
sg13
I1000
sa(dp102
g4
I1
sg5
I1
sg6
g7
sg8
g9
sg10
I9
sg11
F0.18
sg12
I200
sg13
I1000
sa(dp103
g4
I1
sg5
I1
sg6
g7
sg8
g9
sg10
I1
sg11
F0.19
sg12
I200
sg13
I1000
sa(dp104
g4
I1
sg5
I1
sg6
g7
sg8
g9
sg10
I3
sg11
F0.19
sg12
I200
sg13
I1000
sa(dp105
g4
I1
sg5
I1
sg6
g7
sg8
g9
sg10
I5
sg11
F0.19
sg12
I200
sg13
I1000
sa(dp106
g4
I1
sg5
I1
sg6
g7
sg8
g9
sg10
I7
sg11
F0.19
sg12
I200
sg13
I1000
sa(dp107
g4
I1
sg5
I1
sg6
g7
sg8
g9
sg10
I9
sg11
F0.19
sg12
I200
sg13
I1000
sa(dp108
g4
I1
sg5
I1
sg6
g7
sg8
g9
sg10
I1
sg11
F0.2
sg12
I200
sg13
I1000
sa(dp109
g4
I1
sg5
I1
sg6
g7
sg8
g9
sg10
I3
sg11
F0.2
sg12
I200
sg13
I1000
sa(dp110
g4
I1
sg5
I1
sg6
g7
sg8
g9
sg10
I5
sg11
F0.2
sg12
I200
sg13
I1000
sa(dp111
g4
I1
sg5
I1
sg6
g7
sg8
g9
sg10
I7
sg11
F0.2
sg12
I200
sg13
I1000
sa(dp112
g4
I1
sg5
I1
sg6
g7
sg8
g9
sg10
I9
sg11
F0.2
sg12
I200
sg13
I1000
sa(dp113
g4
I2
sg5
I1
sg6
g7
sg8
g9
sg10
I1
sg11
F0.01
sg12
I200
sg13
I1000
sa(dp114
g4
I2
sg5
I1
sg6
g7
sg8
g9
sg10
I3
sg11
F0.01
sg12
I200
sg13
I1000
sa(dp115
g4
I2
sg5
I1
sg6
g7
sg8
g9
sg10
I5
sg11
F0.01
sg12
I200
sg13
I1000
sa(dp116
g4
I2
sg5
I1
sg6
g7
sg8
g9
sg10
I7
sg11
F0.01
sg12
I200
sg13
I1000
sa(dp117
g4
I2
sg5
I1
sg6
g7
sg8
g9
sg10
I9
sg11
F0.01
sg12
I200
sg13
I1000
sa(dp118
g4
I2
sg5
I1
sg6
g7
sg8
g9
sg10
I1
sg11
F0.02
sg12
I200
sg13
I1000
sa(dp119
g4
I2
sg5
I1
sg6
g7
sg8
g9
sg10
I3
sg11
F0.02
sg12
I200
sg13
I1000
sa(dp120
g4
I2
sg5
I1
sg6
g7
sg8
g9
sg10
I5
sg11
F0.02
sg12
I200
sg13
I1000
sa(dp121
g4
I2
sg5
I1
sg6
g7
sg8
g9
sg10
I7
sg11
F0.02
sg12
I200
sg13
I1000
sa(dp122
g4
I2
sg5
I1
sg6
g7
sg8
g9
sg10
I9
sg11
F0.02
sg12
I200
sg13
I1000
sa(dp123
g4
I2
sg5
I1
sg6
g7
sg8
g9
sg10
I1
sg11
F0.03
sg12
I200
sg13
I1000
sa(dp124
g4
I2
sg5
I1
sg6
g7
sg8
g9
sg10
I3
sg11
F0.03
sg12
I200
sg13
I1000
sa(dp125
g4
I2
sg5
I1
sg6
g7
sg8
g9
sg10
I5
sg11
F0.03
sg12
I200
sg13
I1000
sa(dp126
g4
I2
sg5
I1
sg6
g7
sg8
g9
sg10
I7
sg11
F0.03
sg12
I200
sg13
I1000
sa(dp127
g4
I2
sg5
I1
sg6
g7
sg8
g9
sg10
I9
sg11
F0.03
sg12
I200
sg13
I1000
sa(dp128
g4
I2
sg5
I1
sg6
g7
sg8
g9
sg10
I1
sg11
F0.04
sg12
I200
sg13
I1000
sa(dp129
g4
I2
sg5
I1
sg6
g7
sg8
g9
sg10
I3
sg11
F0.04
sg12
I200
sg13
I1000
sa(dp130
g4
I2
sg5
I1
sg6
g7
sg8
g9
sg10
I5
sg11
F0.04
sg12
I200
sg13
I1000
sa(dp131
g4
I2
sg5
I1
sg6
g7
sg8
g9
sg10
I7
sg11
F0.04
sg12
I200
sg13
I1000
sa(dp132
g4
I2
sg5
I1
sg6
g7
sg8
g9
sg10
I9
sg11
F0.04
sg12
I200
sg13
I1000
sa(dp133
g4
I2
sg5
I1
sg6
g7
sg8
g9
sg10
I1
sg11
F0.05
sg12
I200
sg13
I1000
sa(dp134
g4
I2
sg5
I1
sg6
g7
sg8
g9
sg10
I3
sg11
F0.05
sg12
I200
sg13
I1000
sa(dp135
g4
I2
sg5
I1
sg6
g7
sg8
g9
sg10
I5
sg11
F0.05
sg12
I200
sg13
I1000
sa(dp136
g4
I2
sg5
I1
sg6
g7
sg8
g9
sg10
I7
sg11
F0.05
sg12
I200
sg13
I1000
sa(dp137
g4
I2
sg5
I1
sg6
g7
sg8
g9
sg10
I9
sg11
F0.05
sg12
I200
sg13
I1000
sa(dp138
g4
I2
sg5
I1
sg6
g7
sg8
g9
sg10
I1
sg11
F0.06
sg12
I200
sg13
I1000
sa(dp139
g4
I2
sg5
I1
sg6
g7
sg8
g9
sg10
I3
sg11
F0.06
sg12
I200
sg13
I1000
sa(dp140
g4
I2
sg5
I1
sg6
g7
sg8
g9
sg10
I5
sg11
F0.06
sg12
I200
sg13
I1000
sa(dp141
g4
I2
sg5
I1
sg6
g7
sg8
g9
sg10
I7
sg11
F0.06
sg12
I200
sg13
I1000
sa(dp142
g4
I2
sg5
I1
sg6
g7
sg8
g9
sg10
I9
sg11
F0.06
sg12
I200
sg13
I1000
sa(dp143
g4
I2
sg5
I1
sg6
g7
sg8
g9
sg10
I1
sg11
F0.07
sg12
I200
sg13
I1000
sa(dp144
g4
I2
sg5
I1
sg6
g7
sg8
g9
sg10
I3
sg11
F0.07
sg12
I200
sg13
I1000
sa(dp145
g4
I2
sg5
I1
sg6
g7
sg8
g9
sg10
I5
sg11
F0.07
sg12
I200
sg13
I1000
sa(dp146
g4
I2
sg5
I1
sg6
g7
sg8
g9
sg10
I7
sg11
F0.07
sg12
I200
sg13
I1000
sa(dp147
g4
I2
sg5
I1
sg6
g7
sg8
g9
sg10
I9
sg11
F0.07
sg12
I200
sg13
I1000
sa(dp148
g4
I2
sg5
I1
sg6
g7
sg8
g9
sg10
I1
sg11
F0.08
sg12
I200
sg13
I1000
sa(dp149
g4
I2
sg5
I1
sg6
g7
sg8
g9
sg10
I3
sg11
F0.08
sg12
I200
sg13
I1000
sa(dp150
g4
I2
sg5
I1
sg6
g7
sg8
g9
sg10
I5
sg11
F0.08
sg12
I200
sg13
I1000
sa(dp151
g4
I2
sg5
I1
sg6
g7
sg8
g9
sg10
I7
sg11
F0.08
sg12
I200
sg13
I1000
sa(dp152
g4
I2
sg5
I1
sg6
g7
sg8
g9
sg10
I9
sg11
F0.08
sg12
I200
sg13
I1000
sa(dp153
g4
I2
sg5
I1
sg6
g7
sg8
g9
sg10
I1
sg11
F0.09
sg12
I200
sg13
I1000
sa(dp154
g4
I2
sg5
I1
sg6
g7
sg8
g9
sg10
I3
sg11
F0.09
sg12
I200
sg13
I1000
sa(dp155
g4
I2
sg5
I1
sg6
g7
sg8
g9
sg10
I5
sg11
F0.09
sg12
I200
sg13
I1000
sa(dp156
g4
I2
sg5
I1
sg6
g7
sg8
g9
sg10
I7
sg11
F0.09
sg12
I200
sg13
I1000
sa(dp157
g4
I2
sg5
I1
sg6
g7
sg8
g9
sg10
I9
sg11
F0.09
sg12
I200
sg13
I1000
sa(dp158
g4
I2
sg5
I1
sg6
g7
sg8
g9
sg10
I1
sg11
F0.1
sg12
I200
sg13
I1000
sa(dp159
g4
I2
sg5
I1
sg6
g7
sg8
g9
sg10
I3
sg11
F0.1
sg12
I200
sg13
I1000
sa(dp160
g4
I2
sg5
I1
sg6
g7
sg8
g9
sg10
I5
sg11
F0.1
sg12
I200
sg13
I1000
sa(dp161
g4
I2
sg5
I1
sg6
g7
sg8
g9
sg10
I7
sg11
F0.1
sg12
I200
sg13
I1000
sa(dp162
g4
I2
sg5
I1
sg6
g7
sg8
g9
sg10
I9
sg11
F0.1
sg12
I200
sg13
I1000
sa(dp163
g4
I2
sg5
I1
sg6
g7
sg8
g9
sg10
I1
sg11
F0.11
sg12
I200
sg13
I1000
sa(dp164
g4
I2
sg5
I1
sg6
g7
sg8
g9
sg10
I3
sg11
F0.11
sg12
I200
sg13
I1000
sa(dp165
g4
I2
sg5
I1
sg6
g7
sg8
g9
sg10
I5
sg11
F0.11
sg12
I200
sg13
I1000
sa(dp166
g4
I2
sg5
I1
sg6
g7
sg8
g9
sg10
I7
sg11
F0.11
sg12
I200
sg13
I1000
sa(dp167
g4
I2
sg5
I1
sg6
g7
sg8
g9
sg10
I9
sg11
F0.11
sg12
I200
sg13
I1000
sa(dp168
g4
I2
sg5
I1
sg6
g7
sg8
g9
sg10
I1
sg11
F0.12
sg12
I200
sg13
I1000
sa(dp169
g4
I2
sg5
I1
sg6
g7
sg8
g9
sg10
I3
sg11
F0.12
sg12
I200
sg13
I1000
sa(dp170
g4
I2
sg5
I1
sg6
g7
sg8
g9
sg10
I5
sg11
F0.12
sg12
I200
sg13
I1000
sa(dp171
g4
I2
sg5
I1
sg6
g7
sg8
g9
sg10
I7
sg11
F0.12
sg12
I200
sg13
I1000
sa(dp172
g4
I2
sg5
I1
sg6
g7
sg8
g9
sg10
I9
sg11
F0.12
sg12
I200
sg13
I1000
sa(dp173
g4
I2
sg5
I1
sg6
g7
sg8
g9
sg10
I1
sg11
F0.13
sg12
I200
sg13
I1000
sa(dp174
g4
I2
sg5
I1
sg6
g7
sg8
g9
sg10
I3
sg11
F0.13
sg12
I200
sg13
I1000
sa(dp175
g4
I2
sg5
I1
sg6
g7
sg8
g9
sg10
I5
sg11
F0.13
sg12
I200
sg13
I1000
sa(dp176
g4
I2
sg5
I1
sg6
g7
sg8
g9
sg10
I7
sg11
F0.13
sg12
I200
sg13
I1000
sa(dp177
g4
I2
sg5
I1
sg6
g7
sg8
g9
sg10
I9
sg11
F0.13
sg12
I200
sg13
I1000
sa(dp178
g4
I2
sg5
I1
sg6
g7
sg8
g9
sg10
I1
sg11
F0.14
sg12
I200
sg13
I1000
sa(dp179
g4
I2
sg5
I1
sg6
g7
sg8
g9
sg10
I3
sg11
F0.14
sg12
I200
sg13
I1000
sa(dp180
g4
I2
sg5
I1
sg6
g7
sg8
g9
sg10
I5
sg11
F0.14
sg12
I200
sg13
I1000
sa(dp181
g4
I2
sg5
I1
sg6
g7
sg8
g9
sg10
I7
sg11
F0.14
sg12
I200
sg13
I1000
sa(dp182
g4
I2
sg5
I1
sg6
g7
sg8
g9
sg10
I9
sg11
F0.14
sg12
I200
sg13
I1000
sa(dp183
g4
I2
sg5
I1
sg6
g7
sg8
g9
sg10
I1
sg11
F0.15
sg12
I200
sg13
I1000
sa(dp184
g4
I2
sg5
I1
sg6
g7
sg8
g9
sg10
I3
sg11
F0.15
sg12
I200
sg13
I1000
sa(dp185
g4
I2
sg5
I1
sg6
g7
sg8
g9
sg10
I5
sg11
F0.15
sg12
I200
sg13
I1000
sa(dp186
g4
I2
sg5
I1
sg6
g7
sg8
g9
sg10
I7
sg11
F0.15
sg12
I200
sg13
I1000
sa(dp187
g4
I2
sg5
I1
sg6
g7
sg8
g9
sg10
I9
sg11
F0.15
sg12
I200
sg13
I1000
sa(dp188
g4
I2
sg5
I1
sg6
g7
sg8
g9
sg10
I1
sg11
F0.16
sg12
I200
sg13
I1000
sa(dp189
g4
I2
sg5
I1
sg6
g7
sg8
g9
sg10
I3
sg11
F0.16
sg12
I200
sg13
I1000
sa(dp190
g4
I2
sg5
I1
sg6
g7
sg8
g9
sg10
I5
sg11
F0.16
sg12
I200
sg13
I1000
sa(dp191
g4
I2
sg5
I1
sg6
g7
sg8
g9
sg10
I7
sg11
F0.16
sg12
I200
sg13
I1000
sa(dp192
g4
I2
sg5
I1
sg6
g7
sg8
g9
sg10
I9
sg11
F0.16
sg12
I200
sg13
I1000
sa(dp193
g4
I2
sg5
I1
sg6
g7
sg8
g9
sg10
I1
sg11
F0.17
sg12
I200
sg13
I1000
sa(dp194
g4
I2
sg5
I1
sg6
g7
sg8
g9
sg10
I3
sg11
F0.17
sg12
I200
sg13
I1000
sa(dp195
g4
I2
sg5
I1
sg6
g7
sg8
g9
sg10
I5
sg11
F0.17
sg12
I200
sg13
I1000
sa(dp196
g4
I2
sg5
I1
sg6
g7
sg8
g9
sg10
I7
sg11
F0.17
sg12
I200
sg13
I1000
sa(dp197
g4
I2
sg5
I1
sg6
g7
sg8
g9
sg10
I9
sg11
F0.17
sg12
I200
sg13
I1000
sa(dp198
g4
I2
sg5
I1
sg6
g7
sg8
g9
sg10
I1
sg11
F0.18
sg12
I200
sg13
I1000
sa(dp199
g4
I2
sg5
I1
sg6
g7
sg8
g9
sg10
I3
sg11
F0.18
sg12
I200
sg13
I1000
sa(dp200
g4
I2
sg5
I1
sg6
g7
sg8
g9
sg10
I5
sg11
F0.18
sg12
I200
sg13
I1000
sa(dp201
g4
I2
sg5
I1
sg6
g7
sg8
g9
sg10
I7
sg11
F0.18
sg12
I200
sg13
I1000
sa(dp202
g4
I2
sg5
I1
sg6
g7
sg8
g9
sg10
I9
sg11
F0.18
sg12
I200
sg13
I1000
sa(dp203
g4
I2
sg5
I1
sg6
g7
sg8
g9
sg10
I1
sg11
F0.19
sg12
I200
sg13
I1000
sa(dp204
g4
I2
sg5
I1
sg6
g7
sg8
g9
sg10
I3
sg11
F0.19
sg12
I200
sg13
I1000
sa(dp205
g4
I2
sg5
I1
sg6
g7
sg8
g9
sg10
I5
sg11
F0.19
sg12
I200
sg13
I1000
sa(dp206
g4
I2
sg5
I1
sg6
g7
sg8
g9
sg10
I7
sg11
F0.19
sg12
I200
sg13
I1000
sa(dp207
g4
I2
sg5
I1
sg6
g7
sg8
g9
sg10
I9
sg11
F0.19
sg12
I200
sg13
I1000
sa(dp208
g4
I2
sg5
I1
sg6
g7
sg8
g9
sg10
I1
sg11
F0.2
sg12
I200
sg13
I1000
sa(dp209
g4
I2
sg5
I1
sg6
g7
sg8
g9
sg10
I3
sg11
F0.2
sg12
I200
sg13
I1000
sa(dp210
g4
I2
sg5
I1
sg6
g7
sg8
g9
sg10
I5
sg11
F0.2
sg12
I200
sg13
I1000
sa(dp211
g4
I2
sg5
I1
sg6
g7
sg8
g9
sg10
I7
sg11
F0.2
sg12
I200
sg13
I1000
sa(dp212
g4
I2
sg5
I1
sg6
g7
sg8
g9
sg10
I9
sg11
F0.2
sg12
I200
sg13
I1000
sa(dp213
g4
I3
sg5
I1
sg6
g7
sg8
g9
sg10
I1
sg11
F0.01
sg12
I200
sg13
I1000
sa(dp214
g4
I3
sg5
I1
sg6
g7
sg8
g9
sg10
I3
sg11
F0.01
sg12
I200
sg13
I1000
sa(dp215
g4
I3
sg5
I1
sg6
g7
sg8
g9
sg10
I5
sg11
F0.01
sg12
I200
sg13
I1000
sa(dp216
g4
I3
sg5
I1
sg6
g7
sg8
g9
sg10
I7
sg11
F0.01
sg12
I200
sg13
I1000
sa(dp217
g4
I3
sg5
I1
sg6
g7
sg8
g9
sg10
I9
sg11
F0.01
sg12
I200
sg13
I1000
sa(dp218
g4
I3
sg5
I1
sg6
g7
sg8
g9
sg10
I1
sg11
F0.02
sg12
I200
sg13
I1000
sa(dp219
g4
I3
sg5
I1
sg6
g7
sg8
g9
sg10
I3
sg11
F0.02
sg12
I200
sg13
I1000
sa(dp220
g4
I3
sg5
I1
sg6
g7
sg8
g9
sg10
I5
sg11
F0.02
sg12
I200
sg13
I1000
sa(dp221
g4
I3
sg5
I1
sg6
g7
sg8
g9
sg10
I7
sg11
F0.02
sg12
I200
sg13
I1000
sa(dp222
g4
I3
sg5
I1
sg6
g7
sg8
g9
sg10
I9
sg11
F0.02
sg12
I200
sg13
I1000
sa(dp223
g4
I3
sg5
I1
sg6
g7
sg8
g9
sg10
I1
sg11
F0.03
sg12
I200
sg13
I1000
sa(dp224
g4
I3
sg5
I1
sg6
g7
sg8
g9
sg10
I3
sg11
F0.03
sg12
I200
sg13
I1000
sa(dp225
g4
I3
sg5
I1
sg6
g7
sg8
g9
sg10
I5
sg11
F0.03
sg12
I200
sg13
I1000
sa(dp226
g4
I3
sg5
I1
sg6
g7
sg8
g9
sg10
I7
sg11
F0.03
sg12
I200
sg13
I1000
sa(dp227
g4
I3
sg5
I1
sg6
g7
sg8
g9
sg10
I9
sg11
F0.03
sg12
I200
sg13
I1000
sa(dp228
g4
I3
sg5
I1
sg6
g7
sg8
g9
sg10
I1
sg11
F0.04
sg12
I200
sg13
I1000
sa(dp229
g4
I3
sg5
I1
sg6
g7
sg8
g9
sg10
I3
sg11
F0.04
sg12
I200
sg13
I1000
sa(dp230
g4
I3
sg5
I1
sg6
g7
sg8
g9
sg10
I5
sg11
F0.04
sg12
I200
sg13
I1000
sa(dp231
g4
I3
sg5
I1
sg6
g7
sg8
g9
sg10
I7
sg11
F0.04
sg12
I200
sg13
I1000
sa(dp232
g4
I3
sg5
I1
sg6
g7
sg8
g9
sg10
I9
sg11
F0.04
sg12
I200
sg13
I1000
sa(dp233
g4
I3
sg5
I1
sg6
g7
sg8
g9
sg10
I1
sg11
F0.05
sg12
I200
sg13
I1000
sa(dp234
g4
I3
sg5
I1
sg6
g7
sg8
g9
sg10
I3
sg11
F0.05
sg12
I200
sg13
I1000
sa(dp235
g4
I3
sg5
I1
sg6
g7
sg8
g9
sg10
I5
sg11
F0.05
sg12
I200
sg13
I1000
sa(dp236
g4
I3
sg5
I1
sg6
g7
sg8
g9
sg10
I7
sg11
F0.05
sg12
I200
sg13
I1000
sa(dp237
g4
I3
sg5
I1
sg6
g7
sg8
g9
sg10
I9
sg11
F0.05
sg12
I200
sg13
I1000
sa(dp238
g4
I3
sg5
I1
sg6
g7
sg8
g9
sg10
I1
sg11
F0.06
sg12
I200
sg13
I1000
sa(dp239
g4
I3
sg5
I1
sg6
g7
sg8
g9
sg10
I3
sg11
F0.06
sg12
I200
sg13
I1000
sa(dp240
g4
I3
sg5
I1
sg6
g7
sg8
g9
sg10
I5
sg11
F0.06
sg12
I200
sg13
I1000
sa(dp241
g4
I3
sg5
I1
sg6
g7
sg8
g9
sg10
I7
sg11
F0.06
sg12
I200
sg13
I1000
sa(dp242
g4
I3
sg5
I1
sg6
g7
sg8
g9
sg10
I9
sg11
F0.06
sg12
I200
sg13
I1000
sa(dp243
g4
I3
sg5
I1
sg6
g7
sg8
g9
sg10
I1
sg11
F0.07
sg12
I200
sg13
I1000
sa(dp244
g4
I3
sg5
I1
sg6
g7
sg8
g9
sg10
I3
sg11
F0.07
sg12
I200
sg13
I1000
sa(dp245
g4
I3
sg5
I1
sg6
g7
sg8
g9
sg10
I5
sg11
F0.07
sg12
I200
sg13
I1000
sa(dp246
g4
I3
sg5
I1
sg6
g7
sg8
g9
sg10
I7
sg11
F0.07
sg12
I200
sg13
I1000
sa(dp247
g4
I3
sg5
I1
sg6
g7
sg8
g9
sg10
I9
sg11
F0.07
sg12
I200
sg13
I1000
sa(dp248
g4
I3
sg5
I1
sg6
g7
sg8
g9
sg10
I1
sg11
F0.08
sg12
I200
sg13
I1000
sa(dp249
g4
I3
sg5
I1
sg6
g7
sg8
g9
sg10
I3
sg11
F0.08
sg12
I200
sg13
I1000
sa(dp250
g4
I3
sg5
I1
sg6
g7
sg8
g9
sg10
I5
sg11
F0.08
sg12
I200
sg13
I1000
sa(dp251
g4
I3
sg5
I1
sg6
g7
sg8
g9
sg10
I7
sg11
F0.08
sg12
I200
sg13
I1000
sa(dp252
g4
I3
sg5
I1
sg6
g7
sg8
g9
sg10
I9
sg11
F0.08
sg12
I200
sg13
I1000
sa(dp253
g4
I3
sg5
I1
sg6
g7
sg8
g9
sg10
I1
sg11
F0.09
sg12
I200
sg13
I1000
sa(dp254
g4
I3
sg5
I1
sg6
g7
sg8
g9
sg10
I3
sg11
F0.09
sg12
I200
sg13
I1000
sa(dp255
g4
I3
sg5
I1
sg6
g7
sg8
g9
sg10
I5
sg11
F0.09
sg12
I200
sg13
I1000
sa(dp256
g4
I3
sg5
I1
sg6
g7
sg8
g9
sg10
I7
sg11
F0.09
sg12
I200
sg13
I1000
sa(dp257
g4
I3
sg5
I1
sg6
g7
sg8
g9
sg10
I9
sg11
F0.09
sg12
I200
sg13
I1000
sa(dp258
g4
I3
sg5
I1
sg6
g7
sg8
g9
sg10
I1
sg11
F0.1
sg12
I200
sg13
I1000
sa(dp259
g4
I3
sg5
I1
sg6
g7
sg8
g9
sg10
I3
sg11
F0.1
sg12
I200
sg13
I1000
sa(dp260
g4
I3
sg5
I1
sg6
g7
sg8
g9
sg10
I5
sg11
F0.1
sg12
I200
sg13
I1000
sa(dp261
g4
I3
sg5
I1
sg6
g7
sg8
g9
sg10
I7
sg11
F0.1
sg12
I200
sg13
I1000
sa(dp262
g4
I3
sg5
I1
sg6
g7
sg8
g9
sg10
I9
sg11
F0.1
sg12
I200
sg13
I1000
sa(dp263
g4
I3
sg5
I1
sg6
g7
sg8
g9
sg10
I1
sg11
F0.11
sg12
I200
sg13
I1000
sa(dp264
g4
I3
sg5
I1
sg6
g7
sg8
g9
sg10
I3
sg11
F0.11
sg12
I200
sg13
I1000
sa(dp265
g4
I3
sg5
I1
sg6
g7
sg8
g9
sg10
I5
sg11
F0.11
sg12
I200
sg13
I1000
sa(dp266
g4
I3
sg5
I1
sg6
g7
sg8
g9
sg10
I7
sg11
F0.11
sg12
I200
sg13
I1000
sa(dp267
g4
I3
sg5
I1
sg6
g7
sg8
g9
sg10
I9
sg11
F0.11
sg12
I200
sg13
I1000
sa(dp268
g4
I3
sg5
I1
sg6
g7
sg8
g9
sg10
I1
sg11
F0.12
sg12
I200
sg13
I1000
sa(dp269
g4
I3
sg5
I1
sg6
g7
sg8
g9
sg10
I3
sg11
F0.12
sg12
I200
sg13
I1000
sa(dp270
g4
I3
sg5
I1
sg6
g7
sg8
g9
sg10
I5
sg11
F0.12
sg12
I200
sg13
I1000
sa(dp271
g4
I3
sg5
I1
sg6
g7
sg8
g9
sg10
I7
sg11
F0.12
sg12
I200
sg13
I1000
sa(dp272
g4
I3
sg5
I1
sg6
g7
sg8
g9
sg10
I9
sg11
F0.12
sg12
I200
sg13
I1000
sa(dp273
g4
I3
sg5
I1
sg6
g7
sg8
g9
sg10
I1
sg11
F0.13
sg12
I200
sg13
I1000
sa(dp274
g4
I3
sg5
I1
sg6
g7
sg8
g9
sg10
I3
sg11
F0.13
sg12
I200
sg13
I1000
sa(dp275
g4
I3
sg5
I1
sg6
g7
sg8
g9
sg10
I5
sg11
F0.13
sg12
I200
sg13
I1000
sa(dp276
g4
I3
sg5
I1
sg6
g7
sg8
g9
sg10
I7
sg11
F0.13
sg12
I200
sg13
I1000
sa(dp277
g4
I3
sg5
I1
sg6
g7
sg8
g9
sg10
I9
sg11
F0.13
sg12
I200
sg13
I1000
sa(dp278
g4
I3
sg5
I1
sg6
g7
sg8
g9
sg10
I1
sg11
F0.14
sg12
I200
sg13
I1000
sa(dp279
g4
I3
sg5
I1
sg6
g7
sg8
g9
sg10
I3
sg11
F0.14
sg12
I200
sg13
I1000
sa(dp280
g4
I3
sg5
I1
sg6
g7
sg8
g9
sg10
I5
sg11
F0.14
sg12
I200
sg13
I1000
sa(dp281
g4
I3
sg5
I1
sg6
g7
sg8
g9
sg10
I7
sg11
F0.14
sg12
I200
sg13
I1000
sa(dp282
g4
I3
sg5
I1
sg6
g7
sg8
g9
sg10
I9
sg11
F0.14
sg12
I200
sg13
I1000
sa(dp283
g4
I3
sg5
I1
sg6
g7
sg8
g9
sg10
I1
sg11
F0.15
sg12
I200
sg13
I1000
sa(dp284
g4
I3
sg5
I1
sg6
g7
sg8
g9
sg10
I3
sg11
F0.15
sg12
I200
sg13
I1000
sa(dp285
g4
I3
sg5
I1
sg6
g7
sg8
g9
sg10
I5
sg11
F0.15
sg12
I200
sg13
I1000
sa(dp286
g4
I3
sg5
I1
sg6
g7
sg8
g9
sg10
I7
sg11
F0.15
sg12
I200
sg13
I1000
sa(dp287
g4
I3
sg5
I1
sg6
g7
sg8
g9
sg10
I9
sg11
F0.15
sg12
I200
sg13
I1000
sa(dp288
g4
I3
sg5
I1
sg6
g7
sg8
g9
sg10
I1
sg11
F0.16
sg12
I200
sg13
I1000
sa(dp289
g4
I3
sg5
I1
sg6
g7
sg8
g9
sg10
I3
sg11
F0.16
sg12
I200
sg13
I1000
sa(dp290
g4
I3
sg5
I1
sg6
g7
sg8
g9
sg10
I5
sg11
F0.16
sg12
I200
sg13
I1000
sa(dp291
g4
I3
sg5
I1
sg6
g7
sg8
g9
sg10
I7
sg11
F0.16
sg12
I200
sg13
I1000
sa(dp292
g4
I3
sg5
I1
sg6
g7
sg8
g9
sg10
I9
sg11
F0.16
sg12
I200
sg13
I1000
sa(dp293
g4
I3
sg5
I1
sg6
g7
sg8
g9
sg10
I1
sg11
F0.17
sg12
I200
sg13
I1000
sa(dp294
g4
I3
sg5
I1
sg6
g7
sg8
g9
sg10
I3
sg11
F0.17
sg12
I200
sg13
I1000
sa(dp295
g4
I3
sg5
I1
sg6
g7
sg8
g9
sg10
I5
sg11
F0.17
sg12
I200
sg13
I1000
sa(dp296
g4
I3
sg5
I1
sg6
g7
sg8
g9
sg10
I7
sg11
F0.17
sg12
I200
sg13
I1000
sa(dp297
g4
I3
sg5
I1
sg6
g7
sg8
g9
sg10
I9
sg11
F0.17
sg12
I200
sg13
I1000
sa(dp298
g4
I3
sg5
I1
sg6
g7
sg8
g9
sg10
I1
sg11
F0.18
sg12
I200
sg13
I1000
sa(dp299
g4
I3
sg5
I1
sg6
g7
sg8
g9
sg10
I3
sg11
F0.18
sg12
I200
sg13
I1000
sa(dp300
g4
I3
sg5
I1
sg6
g7
sg8
g9
sg10
I5
sg11
F0.18
sg12
I200
sg13
I1000
sa(dp301
g4
I3
sg5
I1
sg6
g7
sg8
g9
sg10
I7
sg11
F0.18
sg12
I200
sg13
I1000
sa(dp302
g4
I3
sg5
I1
sg6
g7
sg8
g9
sg10
I9
sg11
F0.18
sg12
I200
sg13
I1000
sa(dp303
g4
I3
sg5
I1
sg6
g7
sg8
g9
sg10
I1
sg11
F0.19
sg12
I200
sg13
I1000
sa(dp304
g4
I3
sg5
I1
sg6
g7
sg8
g9
sg10
I3
sg11
F0.19
sg12
I200
sg13
I1000
sa(dp305
g4
I3
sg5
I1
sg6
g7
sg8
g9
sg10
I5
sg11
F0.19
sg12
I200
sg13
I1000
sa(dp306
g4
I3
sg5
I1
sg6
g7
sg8
g9
sg10
I7
sg11
F0.19
sg12
I200
sg13
I1000
sa(dp307
g4
I3
sg5
I1
sg6
g7
sg8
g9
sg10
I9
sg11
F0.19
sg12
I200
sg13
I1000
sa(dp308
g4
I3
sg5
I1
sg6
g7
sg8
g9
sg10
I1
sg11
F0.2
sg12
I200
sg13
I1000
sa(dp309
g4
I3
sg5
I1
sg6
g7
sg8
g9
sg10
I3
sg11
F0.2
sg12
I200
sg13
I1000
sa(dp310
g4
I3
sg5
I1
sg6
g7
sg8
g9
sg10
I5
sg11
F0.2
sg12
I200
sg13
I1000
sa(dp311
g4
I3
sg5
I1
sg6
g7
sg8
g9
sg10
I7
sg11
F0.2
sg12
I200
sg13
I1000
sa(dp312
g4
I3
sg5
I1
sg6
g7
sg8
g9
sg10
I9
sg11
F0.2
sg12
I200
sg13
I1000
sa(dp313
g4
I4
sg5
I1
sg6
g7
sg8
g9
sg10
I1
sg11
F0.01
sg12
I200
sg13
I1000
sa(dp314
g4
I4
sg5
I1
sg6
g7
sg8
g9
sg10
I3
sg11
F0.01
sg12
I200
sg13
I1000
sa(dp315
g4
I4
sg5
I1
sg6
g7
sg8
g9
sg10
I5
sg11
F0.01
sg12
I200
sg13
I1000
sa(dp316
g4
I4
sg5
I1
sg6
g7
sg8
g9
sg10
I7
sg11
F0.01
sg12
I200
sg13
I1000
sa(dp317
g4
I4
sg5
I1
sg6
g7
sg8
g9
sg10
I9
sg11
F0.01
sg12
I200
sg13
I1000
sa(dp318
g4
I4
sg5
I1
sg6
g7
sg8
g9
sg10
I1
sg11
F0.02
sg12
I200
sg13
I1000
sa(dp319
g4
I4
sg5
I1
sg6
g7
sg8
g9
sg10
I3
sg11
F0.02
sg12
I200
sg13
I1000
sa(dp320
g4
I4
sg5
I1
sg6
g7
sg8
g9
sg10
I5
sg11
F0.02
sg12
I200
sg13
I1000
sa(dp321
g4
I4
sg5
I1
sg6
g7
sg8
g9
sg10
I7
sg11
F0.02
sg12
I200
sg13
I1000
sa(dp322
g4
I4
sg5
I1
sg6
g7
sg8
g9
sg10
I9
sg11
F0.02
sg12
I200
sg13
I1000
sa(dp323
g4
I4
sg5
I1
sg6
g7
sg8
g9
sg10
I1
sg11
F0.03
sg12
I200
sg13
I1000
sa(dp324
g4
I4
sg5
I1
sg6
g7
sg8
g9
sg10
I3
sg11
F0.03
sg12
I200
sg13
I1000
sa(dp325
g4
I4
sg5
I1
sg6
g7
sg8
g9
sg10
I5
sg11
F0.03
sg12
I200
sg13
I1000
sa(dp326
g4
I4
sg5
I1
sg6
g7
sg8
g9
sg10
I7
sg11
F0.03
sg12
I200
sg13
I1000
sa(dp327
g4
I4
sg5
I1
sg6
g7
sg8
g9
sg10
I9
sg11
F0.03
sg12
I200
sg13
I1000
sa(dp328
g4
I4
sg5
I1
sg6
g7
sg8
g9
sg10
I1
sg11
F0.04
sg12
I200
sg13
I1000
sa(dp329
g4
I4
sg5
I1
sg6
g7
sg8
g9
sg10
I3
sg11
F0.04
sg12
I200
sg13
I1000
sa(dp330
g4
I4
sg5
I1
sg6
g7
sg8
g9
sg10
I5
sg11
F0.04
sg12
I200
sg13
I1000
sa(dp331
g4
I4
sg5
I1
sg6
g7
sg8
g9
sg10
I7
sg11
F0.04
sg12
I200
sg13
I1000
sa(dp332
g4
I4
sg5
I1
sg6
g7
sg8
g9
sg10
I9
sg11
F0.04
sg12
I200
sg13
I1000
sa(dp333
g4
I4
sg5
I1
sg6
g7
sg8
g9
sg10
I1
sg11
F0.05
sg12
I200
sg13
I1000
sa(dp334
g4
I4
sg5
I1
sg6
g7
sg8
g9
sg10
I3
sg11
F0.05
sg12
I200
sg13
I1000
sa(dp335
g4
I4
sg5
I1
sg6
g7
sg8
g9
sg10
I5
sg11
F0.05
sg12
I200
sg13
I1000
sa(dp336
g4
I4
sg5
I1
sg6
g7
sg8
g9
sg10
I7
sg11
F0.05
sg12
I200
sg13
I1000
sa(dp337
g4
I4
sg5
I1
sg6
g7
sg8
g9
sg10
I9
sg11
F0.05
sg12
I200
sg13
I1000
sa(dp338
g4
I4
sg5
I1
sg6
g7
sg8
g9
sg10
I1
sg11
F0.06
sg12
I200
sg13
I1000
sa(dp339
g4
I4
sg5
I1
sg6
g7
sg8
g9
sg10
I3
sg11
F0.06
sg12
I200
sg13
I1000
sa(dp340
g4
I4
sg5
I1
sg6
g7
sg8
g9
sg10
I5
sg11
F0.06
sg12
I200
sg13
I1000
sa(dp341
g4
I4
sg5
I1
sg6
g7
sg8
g9
sg10
I7
sg11
F0.06
sg12
I200
sg13
I1000
sa(dp342
g4
I4
sg5
I1
sg6
g7
sg8
g9
sg10
I9
sg11
F0.06
sg12
I200
sg13
I1000
sa(dp343
g4
I4
sg5
I1
sg6
g7
sg8
g9
sg10
I1
sg11
F0.07
sg12
I200
sg13
I1000
sa(dp344
g4
I4
sg5
I1
sg6
g7
sg8
g9
sg10
I3
sg11
F0.07
sg12
I200
sg13
I1000
sa(dp345
g4
I4
sg5
I1
sg6
g7
sg8
g9
sg10
I5
sg11
F0.07
sg12
I200
sg13
I1000
sa(dp346
g4
I4
sg5
I1
sg6
g7
sg8
g9
sg10
I7
sg11
F0.07
sg12
I200
sg13
I1000
sa(dp347
g4
I4
sg5
I1
sg6
g7
sg8
g9
sg10
I9
sg11
F0.07
sg12
I200
sg13
I1000
sa(dp348
g4
I4
sg5
I1
sg6
g7
sg8
g9
sg10
I1
sg11
F0.08
sg12
I200
sg13
I1000
sa(dp349
g4
I4
sg5
I1
sg6
g7
sg8
g9
sg10
I3
sg11
F0.08
sg12
I200
sg13
I1000
sa(dp350
g4
I4
sg5
I1
sg6
g7
sg8
g9
sg10
I5
sg11
F0.08
sg12
I200
sg13
I1000
sa(dp351
g4
I4
sg5
I1
sg6
g7
sg8
g9
sg10
I7
sg11
F0.08
sg12
I200
sg13
I1000
sa(dp352
g4
I4
sg5
I1
sg6
g7
sg8
g9
sg10
I9
sg11
F0.08
sg12
I200
sg13
I1000
sa(dp353
g4
I4
sg5
I1
sg6
g7
sg8
g9
sg10
I1
sg11
F0.09
sg12
I200
sg13
I1000
sa(dp354
g4
I4
sg5
I1
sg6
g7
sg8
g9
sg10
I3
sg11
F0.09
sg12
I200
sg13
I1000
sa(dp355
g4
I4
sg5
I1
sg6
g7
sg8
g9
sg10
I5
sg11
F0.09
sg12
I200
sg13
I1000
sa(dp356
g4
I4
sg5
I1
sg6
g7
sg8
g9
sg10
I7
sg11
F0.09
sg12
I200
sg13
I1000
sa(dp357
g4
I4
sg5
I1
sg6
g7
sg8
g9
sg10
I9
sg11
F0.09
sg12
I200
sg13
I1000
sa(dp358
g4
I4
sg5
I1
sg6
g7
sg8
g9
sg10
I1
sg11
F0.1
sg12
I200
sg13
I1000
sa(dp359
g4
I4
sg5
I1
sg6
g7
sg8
g9
sg10
I3
sg11
F0.1
sg12
I200
sg13
I1000
sa(dp360
g4
I4
sg5
I1
sg6
g7
sg8
g9
sg10
I5
sg11
F0.1
sg12
I200
sg13
I1000
sa(dp361
g4
I4
sg5
I1
sg6
g7
sg8
g9
sg10
I7
sg11
F0.1
sg12
I200
sg13
I1000
sa(dp362
g4
I4
sg5
I1
sg6
g7
sg8
g9
sg10
I9
sg11
F0.1
sg12
I200
sg13
I1000
sa(dp363
g4
I4
sg5
I1
sg6
g7
sg8
g9
sg10
I1
sg11
F0.11
sg12
I200
sg13
I1000
sa(dp364
g4
I4
sg5
I1
sg6
g7
sg8
g9
sg10
I3
sg11
F0.11
sg12
I200
sg13
I1000
sa(dp365
g4
I4
sg5
I1
sg6
g7
sg8
g9
sg10
I5
sg11
F0.11
sg12
I200
sg13
I1000
sa(dp366
g4
I4
sg5
I1
sg6
g7
sg8
g9
sg10
I7
sg11
F0.11
sg12
I200
sg13
I1000
sa(dp367
g4
I4
sg5
I1
sg6
g7
sg8
g9
sg10
I9
sg11
F0.11
sg12
I200
sg13
I1000
sa(dp368
g4
I4
sg5
I1
sg6
g7
sg8
g9
sg10
I1
sg11
F0.12
sg12
I200
sg13
I1000
sa(dp369
g4
I4
sg5
I1
sg6
g7
sg8
g9
sg10
I3
sg11
F0.12
sg12
I200
sg13
I1000
sa(dp370
g4
I4
sg5
I1
sg6
g7
sg8
g9
sg10
I5
sg11
F0.12
sg12
I200
sg13
I1000
sa(dp371
g4
I4
sg5
I1
sg6
g7
sg8
g9
sg10
I7
sg11
F0.12
sg12
I200
sg13
I1000
sa(dp372
g4
I4
sg5
I1
sg6
g7
sg8
g9
sg10
I9
sg11
F0.12
sg12
I200
sg13
I1000
sa(dp373
g4
I4
sg5
I1
sg6
g7
sg8
g9
sg10
I1
sg11
F0.13
sg12
I200
sg13
I1000
sa(dp374
g4
I4
sg5
I1
sg6
g7
sg8
g9
sg10
I3
sg11
F0.13
sg12
I200
sg13
I1000
sa(dp375
g4
I4
sg5
I1
sg6
g7
sg8
g9
sg10
I5
sg11
F0.13
sg12
I200
sg13
I1000
sa(dp376
g4
I4
sg5
I1
sg6
g7
sg8
g9
sg10
I7
sg11
F0.13
sg12
I200
sg13
I1000
sa(dp377
g4
I4
sg5
I1
sg6
g7
sg8
g9
sg10
I9
sg11
F0.13
sg12
I200
sg13
I1000
sa(dp378
g4
I4
sg5
I1
sg6
g7
sg8
g9
sg10
I1
sg11
F0.14
sg12
I200
sg13
I1000
sa(dp379
g4
I4
sg5
I1
sg6
g7
sg8
g9
sg10
I3
sg11
F0.14
sg12
I200
sg13
I1000
sa(dp380
g4
I4
sg5
I1
sg6
g7
sg8
g9
sg10
I5
sg11
F0.14
sg12
I200
sg13
I1000
sa(dp381
g4
I4
sg5
I1
sg6
g7
sg8
g9
sg10
I7
sg11
F0.14
sg12
I200
sg13
I1000
sa(dp382
g4
I4
sg5
I1
sg6
g7
sg8
g9
sg10
I9
sg11
F0.14
sg12
I200
sg13
I1000
sa(dp383
g4
I4
sg5
I1
sg6
g7
sg8
g9
sg10
I1
sg11
F0.15
sg12
I200
sg13
I1000
sa(dp384
g4
I4
sg5
I1
sg6
g7
sg8
g9
sg10
I3
sg11
F0.15
sg12
I200
sg13
I1000
sa(dp385
g4
I4
sg5
I1
sg6
g7
sg8
g9
sg10
I5
sg11
F0.15
sg12
I200
sg13
I1000
sa(dp386
g4
I4
sg5
I1
sg6
g7
sg8
g9
sg10
I7
sg11
F0.15
sg12
I200
sg13
I1000
sa(dp387
g4
I4
sg5
I1
sg6
g7
sg8
g9
sg10
I9
sg11
F0.15
sg12
I200
sg13
I1000
sa(dp388
g4
I4
sg5
I1
sg6
g7
sg8
g9
sg10
I1
sg11
F0.16
sg12
I200
sg13
I1000
sa(dp389
g4
I4
sg5
I1
sg6
g7
sg8
g9
sg10
I3
sg11
F0.16
sg12
I200
sg13
I1000
sa(dp390
g4
I4
sg5
I1
sg6
g7
sg8
g9
sg10
I5
sg11
F0.16
sg12
I200
sg13
I1000
sa(dp391
g4
I4
sg5
I1
sg6
g7
sg8
g9
sg10
I7
sg11
F0.16
sg12
I200
sg13
I1000
sa(dp392
g4
I4
sg5
I1
sg6
g7
sg8
g9
sg10
I9
sg11
F0.16
sg12
I200
sg13
I1000
sa(dp393
g4
I4
sg5
I1
sg6
g7
sg8
g9
sg10
I1
sg11
F0.17
sg12
I200
sg13
I1000
sa(dp394
g4
I4
sg5
I1
sg6
g7
sg8
g9
sg10
I3
sg11
F0.17
sg12
I200
sg13
I1000
sa(dp395
g4
I4
sg5
I1
sg6
g7
sg8
g9
sg10
I5
sg11
F0.17
sg12
I200
sg13
I1000
sa(dp396
g4
I4
sg5
I1
sg6
g7
sg8
g9
sg10
I7
sg11
F0.17
sg12
I200
sg13
I1000
sa(dp397
g4
I4
sg5
I1
sg6
g7
sg8
g9
sg10
I9
sg11
F0.17
sg12
I200
sg13
I1000
sa(dp398
g4
I4
sg5
I1
sg6
g7
sg8
g9
sg10
I1
sg11
F0.18
sg12
I200
sg13
I1000
sa(dp399
g4
I4
sg5
I1
sg6
g7
sg8
g9
sg10
I3
sg11
F0.18
sg12
I200
sg13
I1000
sa(dp400
g4
I4
sg5
I1
sg6
g7
sg8
g9
sg10
I5
sg11
F0.18
sg12
I200
sg13
I1000
sa(dp401
g4
I4
sg5
I1
sg6
g7
sg8
g9
sg10
I7
sg11
F0.18
sg12
I200
sg13
I1000
sa(dp402
g4
I4
sg5
I1
sg6
g7
sg8
g9
sg10
I9
sg11
F0.18
sg12
I200
sg13
I1000
sa(dp403
g4
I4
sg5
I1
sg6
g7
sg8
g9
sg10
I1
sg11
F0.19
sg12
I200
sg13
I1000
sa(dp404
g4
I4
sg5
I1
sg6
g7
sg8
g9
sg10
I3
sg11
F0.19
sg12
I200
sg13
I1000
sa(dp405
g4
I4
sg5
I1
sg6
g7
sg8
g9
sg10
I5
sg11
F0.19
sg12
I200
sg13
I1000
sa(dp406
g4
I4
sg5
I1
sg6
g7
sg8
g9
sg10
I7
sg11
F0.19
sg12
I200
sg13
I1000
sa(dp407
g4
I4
sg5
I1
sg6
g7
sg8
g9
sg10
I9
sg11
F0.19
sg12
I200
sg13
I1000
sa(dp408
g4
I4
sg5
I1
sg6
g7
sg8
g9
sg10
I1
sg11
F0.2
sg12
I200
sg13
I1000
sa(dp409
g4
I4
sg5
I1
sg6
g7
sg8
g9
sg10
I3
sg11
F0.2
sg12
I200
sg13
I1000
sa(dp410
g4
I4
sg5
I1
sg6
g7
sg8
g9
sg10
I5
sg11
F0.2
sg12
I200
sg13
I1000
sa(dp411
g4
I4
sg5
I1
sg6
g7
sg8
g9
sg10
I7
sg11
F0.2
sg12
I200
sg13
I1000
sa(dp412
g4
I4
sg5
I1
sg6
g7
sg8
g9
sg10
I9
sg11
F0.2
sg12
I200
sg13
I1000
sa(dp413
g4
I5
sg5
I1
sg6
g7
sg8
g9
sg10
I1
sg11
F0.01
sg12
I200
sg13
I1000
sa(dp414
g4
I5
sg5
I1
sg6
g7
sg8
g9
sg10
I3
sg11
F0.01
sg12
I200
sg13
I1000
sa(dp415
g4
I5
sg5
I1
sg6
g7
sg8
g9
sg10
I5
sg11
F0.01
sg12
I200
sg13
I1000
sa(dp416
g4
I5
sg5
I1
sg6
g7
sg8
g9
sg10
I7
sg11
F0.01
sg12
I200
sg13
I1000
sa(dp417
g4
I5
sg5
I1
sg6
g7
sg8
g9
sg10
I9
sg11
F0.01
sg12
I200
sg13
I1000
sa(dp418
g4
I5
sg5
I1
sg6
g7
sg8
g9
sg10
I1
sg11
F0.02
sg12
I200
sg13
I1000
sa(dp419
g4
I5
sg5
I1
sg6
g7
sg8
g9
sg10
I3
sg11
F0.02
sg12
I200
sg13
I1000
sa(dp420
g4
I5
sg5
I1
sg6
g7
sg8
g9
sg10
I5
sg11
F0.02
sg12
I200
sg13
I1000
sa(dp421
g4
I5
sg5
I1
sg6
g7
sg8
g9
sg10
I7
sg11
F0.02
sg12
I200
sg13
I1000
sa(dp422
g4
I5
sg5
I1
sg6
g7
sg8
g9
sg10
I9
sg11
F0.02
sg12
I200
sg13
I1000
sa(dp423
g4
I5
sg5
I1
sg6
g7
sg8
g9
sg10
I1
sg11
F0.03
sg12
I200
sg13
I1000
sa(dp424
g4
I5
sg5
I1
sg6
g7
sg8
g9
sg10
I3
sg11
F0.03
sg12
I200
sg13
I1000
sa(dp425
g4
I5
sg5
I1
sg6
g7
sg8
g9
sg10
I5
sg11
F0.03
sg12
I200
sg13
I1000
sa(dp426
g4
I5
sg5
I1
sg6
g7
sg8
g9
sg10
I7
sg11
F0.03
sg12
I200
sg13
I1000
sa(dp427
g4
I5
sg5
I1
sg6
g7
sg8
g9
sg10
I9
sg11
F0.03
sg12
I200
sg13
I1000
sa(dp428
g4
I5
sg5
I1
sg6
g7
sg8
g9
sg10
I1
sg11
F0.04
sg12
I200
sg13
I1000
sa(dp429
g4
I5
sg5
I1
sg6
g7
sg8
g9
sg10
I3
sg11
F0.04
sg12
I200
sg13
I1000
sa(dp430
g4
I5
sg5
I1
sg6
g7
sg8
g9
sg10
I5
sg11
F0.04
sg12
I200
sg13
I1000
sa(dp431
g4
I5
sg5
I1
sg6
g7
sg8
g9
sg10
I7
sg11
F0.04
sg12
I200
sg13
I1000
sa(dp432
g4
I5
sg5
I1
sg6
g7
sg8
g9
sg10
I9
sg11
F0.04
sg12
I200
sg13
I1000
sa(dp433
g4
I5
sg5
I1
sg6
g7
sg8
g9
sg10
I1
sg11
F0.05
sg12
I200
sg13
I1000
sa(dp434
g4
I5
sg5
I1
sg6
g7
sg8
g9
sg10
I3
sg11
F0.05
sg12
I200
sg13
I1000
sa(dp435
g4
I5
sg5
I1
sg6
g7
sg8
g9
sg10
I5
sg11
F0.05
sg12
I200
sg13
I1000
sa(dp436
g4
I5
sg5
I1
sg6
g7
sg8
g9
sg10
I7
sg11
F0.05
sg12
I200
sg13
I1000
sa(dp437
g4
I5
sg5
I1
sg6
g7
sg8
g9
sg10
I9
sg11
F0.05
sg12
I200
sg13
I1000
sa(dp438
g4
I5
sg5
I1
sg6
g7
sg8
g9
sg10
I1
sg11
F0.06
sg12
I200
sg13
I1000
sa(dp439
g4
I5
sg5
I1
sg6
g7
sg8
g9
sg10
I3
sg11
F0.06
sg12
I200
sg13
I1000
sa(dp440
g4
I5
sg5
I1
sg6
g7
sg8
g9
sg10
I5
sg11
F0.06
sg12
I200
sg13
I1000
sa(dp441
g4
I5
sg5
I1
sg6
g7
sg8
g9
sg10
I7
sg11
F0.06
sg12
I200
sg13
I1000
sa(dp442
g4
I5
sg5
I1
sg6
g7
sg8
g9
sg10
I9
sg11
F0.06
sg12
I200
sg13
I1000
sa(dp443
g4
I5
sg5
I1
sg6
g7
sg8
g9
sg10
I1
sg11
F0.07
sg12
I200
sg13
I1000
sa(dp444
g4
I5
sg5
I1
sg6
g7
sg8
g9
sg10
I3
sg11
F0.07
sg12
I200
sg13
I1000
sa(dp445
g4
I5
sg5
I1
sg6
g7
sg8
g9
sg10
I5
sg11
F0.07
sg12
I200
sg13
I1000
sa(dp446
g4
I5
sg5
I1
sg6
g7
sg8
g9
sg10
I7
sg11
F0.07
sg12
I200
sg13
I1000
sa(dp447
g4
I5
sg5
I1
sg6
g7
sg8
g9
sg10
I9
sg11
F0.07
sg12
I200
sg13
I1000
sa(dp448
g4
I5
sg5
I1
sg6
g7
sg8
g9
sg10
I1
sg11
F0.08
sg12
I200
sg13
I1000
sa(dp449
g4
I5
sg5
I1
sg6
g7
sg8
g9
sg10
I3
sg11
F0.08
sg12
I200
sg13
I1000
sa(dp450
g4
I5
sg5
I1
sg6
g7
sg8
g9
sg10
I5
sg11
F0.08
sg12
I200
sg13
I1000
sa(dp451
g4
I5
sg5
I1
sg6
g7
sg8
g9
sg10
I7
sg11
F0.08
sg12
I200
sg13
I1000
sa(dp452
g4
I5
sg5
I1
sg6
g7
sg8
g9
sg10
I9
sg11
F0.08
sg12
I200
sg13
I1000
sa(dp453
g4
I5
sg5
I1
sg6
g7
sg8
g9
sg10
I1
sg11
F0.09
sg12
I200
sg13
I1000
sa(dp454
g4
I5
sg5
I1
sg6
g7
sg8
g9
sg10
I3
sg11
F0.09
sg12
I200
sg13
I1000
sa(dp455
g4
I5
sg5
I1
sg6
g7
sg8
g9
sg10
I5
sg11
F0.09
sg12
I200
sg13
I1000
sa(dp456
g4
I5
sg5
I1
sg6
g7
sg8
g9
sg10
I7
sg11
F0.09
sg12
I200
sg13
I1000
sa(dp457
g4
I5
sg5
I1
sg6
g7
sg8
g9
sg10
I9
sg11
F0.09
sg12
I200
sg13
I1000
sa(dp458
g4
I5
sg5
I1
sg6
g7
sg8
g9
sg10
I1
sg11
F0.1
sg12
I200
sg13
I1000
sa(dp459
g4
I5
sg5
I1
sg6
g7
sg8
g9
sg10
I3
sg11
F0.1
sg12
I200
sg13
I1000
sa(dp460
g4
I5
sg5
I1
sg6
g7
sg8
g9
sg10
I5
sg11
F0.1
sg12
I200
sg13
I1000
sa(dp461
g4
I5
sg5
I1
sg6
g7
sg8
g9
sg10
I7
sg11
F0.1
sg12
I200
sg13
I1000
sa(dp462
g4
I5
sg5
I1
sg6
g7
sg8
g9
sg10
I9
sg11
F0.1
sg12
I200
sg13
I1000
sa(dp463
g4
I5
sg5
I1
sg6
g7
sg8
g9
sg10
I1
sg11
F0.11
sg12
I200
sg13
I1000
sa(dp464
g4
I5
sg5
I1
sg6
g7
sg8
g9
sg10
I3
sg11
F0.11
sg12
I200
sg13
I1000
sa(dp465
g4
I5
sg5
I1
sg6
g7
sg8
g9
sg10
I5
sg11
F0.11
sg12
I200
sg13
I1000
sa(dp466
g4
I5
sg5
I1
sg6
g7
sg8
g9
sg10
I7
sg11
F0.11
sg12
I200
sg13
I1000
sa(dp467
g4
I5
sg5
I1
sg6
g7
sg8
g9
sg10
I9
sg11
F0.11
sg12
I200
sg13
I1000
sa(dp468
g4
I5
sg5
I1
sg6
g7
sg8
g9
sg10
I1
sg11
F0.12
sg12
I200
sg13
I1000
sa(dp469
g4
I5
sg5
I1
sg6
g7
sg8
g9
sg10
I3
sg11
F0.12
sg12
I200
sg13
I1000
sa(dp470
g4
I5
sg5
I1
sg6
g7
sg8
g9
sg10
I5
sg11
F0.12
sg12
I200
sg13
I1000
sa(dp471
g4
I5
sg5
I1
sg6
g7
sg8
g9
sg10
I7
sg11
F0.12
sg12
I200
sg13
I1000
sa(dp472
g4
I5
sg5
I1
sg6
g7
sg8
g9
sg10
I9
sg11
F0.12
sg12
I200
sg13
I1000
sa(dp473
g4
I5
sg5
I1
sg6
g7
sg8
g9
sg10
I1
sg11
F0.13
sg12
I200
sg13
I1000
sa(dp474
g4
I5
sg5
I1
sg6
g7
sg8
g9
sg10
I3
sg11
F0.13
sg12
I200
sg13
I1000
sa(dp475
g4
I5
sg5
I1
sg6
g7
sg8
g9
sg10
I5
sg11
F0.13
sg12
I200
sg13
I1000
sa(dp476
g4
I5
sg5
I1
sg6
g7
sg8
g9
sg10
I7
sg11
F0.13
sg12
I200
sg13
I1000
sa(dp477
g4
I5
sg5
I1
sg6
g7
sg8
g9
sg10
I9
sg11
F0.13
sg12
I200
sg13
I1000
sa(dp478
g4
I5
sg5
I1
sg6
g7
sg8
g9
sg10
I1
sg11
F0.14
sg12
I200
sg13
I1000
sa(dp479
g4
I5
sg5
I1
sg6
g7
sg8
g9
sg10
I3
sg11
F0.14
sg12
I200
sg13
I1000
sa(dp480
g4
I5
sg5
I1
sg6
g7
sg8
g9
sg10
I5
sg11
F0.14
sg12
I200
sg13
I1000
sa(dp481
g4
I5
sg5
I1
sg6
g7
sg8
g9
sg10
I7
sg11
F0.14
sg12
I200
sg13
I1000
sa(dp482
g4
I5
sg5
I1
sg6
g7
sg8
g9
sg10
I9
sg11
F0.14
sg12
I200
sg13
I1000
sa(dp483
g4
I5
sg5
I1
sg6
g7
sg8
g9
sg10
I1
sg11
F0.15
sg12
I200
sg13
I1000
sa(dp484
g4
I5
sg5
I1
sg6
g7
sg8
g9
sg10
I3
sg11
F0.15
sg12
I200
sg13
I1000
sa(dp485
g4
I5
sg5
I1
sg6
g7
sg8
g9
sg10
I5
sg11
F0.15
sg12
I200
sg13
I1000
sa(dp486
g4
I5
sg5
I1
sg6
g7
sg8
g9
sg10
I7
sg11
F0.15
sg12
I200
sg13
I1000
sa(dp487
g4
I5
sg5
I1
sg6
g7
sg8
g9
sg10
I9
sg11
F0.15
sg12
I200
sg13
I1000
sa(dp488
g4
I5
sg5
I1
sg6
g7
sg8
g9
sg10
I1
sg11
F0.16
sg12
I200
sg13
I1000
sa(dp489
g4
I5
sg5
I1
sg6
g7
sg8
g9
sg10
I3
sg11
F0.16
sg12
I200
sg13
I1000
sa(dp490
g4
I5
sg5
I1
sg6
g7
sg8
g9
sg10
I5
sg11
F0.16
sg12
I200
sg13
I1000
sa(dp491
g4
I5
sg5
I1
sg6
g7
sg8
g9
sg10
I7
sg11
F0.16
sg12
I200
sg13
I1000
sa(dp492
g4
I5
sg5
I1
sg6
g7
sg8
g9
sg10
I9
sg11
F0.16
sg12
I200
sg13
I1000
sa(dp493
g4
I5
sg5
I1
sg6
g7
sg8
g9
sg10
I1
sg11
F0.17
sg12
I200
sg13
I1000
sa(dp494
g4
I5
sg5
I1
sg6
g7
sg8
g9
sg10
I3
sg11
F0.17
sg12
I200
sg13
I1000
sa(dp495
g4
I5
sg5
I1
sg6
g7
sg8
g9
sg10
I5
sg11
F0.17
sg12
I200
sg13
I1000
sa(dp496
g4
I5
sg5
I1
sg6
g7
sg8
g9
sg10
I7
sg11
F0.17
sg12
I200
sg13
I1000
sa(dp497
g4
I5
sg5
I1
sg6
g7
sg8
g9
sg10
I9
sg11
F0.17
sg12
I200
sg13
I1000
sa(dp498
g4
I5
sg5
I1
sg6
g7
sg8
g9
sg10
I1
sg11
F0.18
sg12
I200
sg13
I1000
sa(dp499
g4
I5
sg5
I1
sg6
g7
sg8
g9
sg10
I3
sg11
F0.18
sg12
I200
sg13
I1000
sa(dp500
g4
I5
sg5
I1
sg6
g7
sg8
g9
sg10
I5
sg11
F0.18
sg12
I200
sg13
I1000
sa(dp501
g4
I5
sg5
I1
sg6
g7
sg8
g9
sg10
I7
sg11
F0.18
sg12
I200
sg13
I1000
sa(dp502
g4
I5
sg5
I1
sg6
g7
sg8
g9
sg10
I9
sg11
F0.18
sg12
I200
sg13
I1000
sa(dp503
g4
I5
sg5
I1
sg6
g7
sg8
g9
sg10
I1
sg11
F0.19
sg12
I200
sg13
I1000
sa(dp504
g4
I5
sg5
I1
sg6
g7
sg8
g9
sg10
I3
sg11
F0.19
sg12
I200
sg13
I1000
sa(dp505
g4
I5
sg5
I1
sg6
g7
sg8
g9
sg10
I5
sg11
F0.19
sg12
I200
sg13
I1000
sa(dp506
g4
I5
sg5
I1
sg6
g7
sg8
g9
sg10
I7
sg11
F0.19
sg12
I200
sg13
I1000
sa(dp507
g4
I5
sg5
I1
sg6
g7
sg8
g9
sg10
I9
sg11
F0.19
sg12
I200
sg13
I1000
sa(dp508
g4
I5
sg5
I1
sg6
g7
sg8
g9
sg10
I1
sg11
F0.2
sg12
I200
sg13
I1000
sa(dp509
g4
I5
sg5
I1
sg6
g7
sg8
g9
sg10
I3
sg11
F0.2
sg12
I200
sg13
I1000
sa(dp510
g4
I5
sg5
I1
sg6
g7
sg8
g9
sg10
I5
sg11
F0.2
sg12
I200
sg13
I1000
sa(dp511
g4
I5
sg5
I1
sg6
g7
sg8
g9
sg10
I7
sg11
F0.2
sg12
I200
sg13
I1000
sa(dp512
g4
I5
sg5
I1
sg6
g7
sg8
g9
sg10
I9
sg11
F0.2
sg12
I200
sg13
I1000
sa(dp513
g4
I6
sg5
I1
sg6
g7
sg8
g9
sg10
I1
sg11
F0.01
sg12
I200
sg13
I1000
sa(dp514
g4
I6
sg5
I1
sg6
g7
sg8
g9
sg10
I3
sg11
F0.01
sg12
I200
sg13
I1000
sa(dp515
g4
I6
sg5
I1
sg6
g7
sg8
g9
sg10
I5
sg11
F0.01
sg12
I200
sg13
I1000
sa(dp516
g4
I6
sg5
I1
sg6
g7
sg8
g9
sg10
I7
sg11
F0.01
sg12
I200
sg13
I1000
sa(dp517
g4
I6
sg5
I1
sg6
g7
sg8
g9
sg10
I9
sg11
F0.01
sg12
I200
sg13
I1000
sa(dp518
g4
I6
sg5
I1
sg6
g7
sg8
g9
sg10
I1
sg11
F0.02
sg12
I200
sg13
I1000
sa(dp519
g4
I6
sg5
I1
sg6
g7
sg8
g9
sg10
I3
sg11
F0.02
sg12
I200
sg13
I1000
sa(dp520
g4
I6
sg5
I1
sg6
g7
sg8
g9
sg10
I5
sg11
F0.02
sg12
I200
sg13
I1000
sa(dp521
g4
I6
sg5
I1
sg6
g7
sg8
g9
sg10
I7
sg11
F0.02
sg12
I200
sg13
I1000
sa(dp522
g4
I6
sg5
I1
sg6
g7
sg8
g9
sg10
I9
sg11
F0.02
sg12
I200
sg13
I1000
sa(dp523
g4
I6
sg5
I1
sg6
g7
sg8
g9
sg10
I1
sg11
F0.03
sg12
I200
sg13
I1000
sa(dp524
g4
I6
sg5
I1
sg6
g7
sg8
g9
sg10
I3
sg11
F0.03
sg12
I200
sg13
I1000
sa(dp525
g4
I6
sg5
I1
sg6
g7
sg8
g9
sg10
I5
sg11
F0.03
sg12
I200
sg13
I1000
sa(dp526
g4
I6
sg5
I1
sg6
g7
sg8
g9
sg10
I7
sg11
F0.03
sg12
I200
sg13
I1000
sa(dp527
g4
I6
sg5
I1
sg6
g7
sg8
g9
sg10
I9
sg11
F0.03
sg12
I200
sg13
I1000
sa(dp528
g4
I6
sg5
I1
sg6
g7
sg8
g9
sg10
I1
sg11
F0.04
sg12
I200
sg13
I1000
sa(dp529
g4
I6
sg5
I1
sg6
g7
sg8
g9
sg10
I3
sg11
F0.04
sg12
I200
sg13
I1000
sa(dp530
g4
I6
sg5
I1
sg6
g7
sg8
g9
sg10
I5
sg11
F0.04
sg12
I200
sg13
I1000
sa(dp531
g4
I6
sg5
I1
sg6
g7
sg8
g9
sg10
I7
sg11
F0.04
sg12
I200
sg13
I1000
sa(dp532
g4
I6
sg5
I1
sg6
g7
sg8
g9
sg10
I9
sg11
F0.04
sg12
I200
sg13
I1000
sa(dp533
g4
I6
sg5
I1
sg6
g7
sg8
g9
sg10
I1
sg11
F0.05
sg12
I200
sg13
I1000
sa(dp534
g4
I6
sg5
I1
sg6
g7
sg8
g9
sg10
I3
sg11
F0.05
sg12
I200
sg13
I1000
sa(dp535
g4
I6
sg5
I1
sg6
g7
sg8
g9
sg10
I5
sg11
F0.05
sg12
I200
sg13
I1000
sa(dp536
g4
I6
sg5
I1
sg6
g7
sg8
g9
sg10
I7
sg11
F0.05
sg12
I200
sg13
I1000
sa(dp537
g4
I6
sg5
I1
sg6
g7
sg8
g9
sg10
I9
sg11
F0.05
sg12
I200
sg13
I1000
sa(dp538
g4
I6
sg5
I1
sg6
g7
sg8
g9
sg10
I1
sg11
F0.06
sg12
I200
sg13
I1000
sa(dp539
g4
I6
sg5
I1
sg6
g7
sg8
g9
sg10
I3
sg11
F0.06
sg12
I200
sg13
I1000
sa(dp540
g4
I6
sg5
I1
sg6
g7
sg8
g9
sg10
I5
sg11
F0.06
sg12
I200
sg13
I1000
sa(dp541
g4
I6
sg5
I1
sg6
g7
sg8
g9
sg10
I7
sg11
F0.06
sg12
I200
sg13
I1000
sa(dp542
g4
I6
sg5
I1
sg6
g7
sg8
g9
sg10
I9
sg11
F0.06
sg12
I200
sg13
I1000
sa(dp543
g4
I6
sg5
I1
sg6
g7
sg8
g9
sg10
I1
sg11
F0.07
sg12
I200
sg13
I1000
sa(dp544
g4
I6
sg5
I1
sg6
g7
sg8
g9
sg10
I3
sg11
F0.07
sg12
I200
sg13
I1000
sa(dp545
g4
I6
sg5
I1
sg6
g7
sg8
g9
sg10
I5
sg11
F0.07
sg12
I200
sg13
I1000
sa(dp546
g4
I6
sg5
I1
sg6
g7
sg8
g9
sg10
I7
sg11
F0.07
sg12
I200
sg13
I1000
sa(dp547
g4
I6
sg5
I1
sg6
g7
sg8
g9
sg10
I9
sg11
F0.07
sg12
I200
sg13
I1000
sa(dp548
g4
I6
sg5
I1
sg6
g7
sg8
g9
sg10
I1
sg11
F0.08
sg12
I200
sg13
I1000
sa(dp549
g4
I6
sg5
I1
sg6
g7
sg8
g9
sg10
I3
sg11
F0.08
sg12
I200
sg13
I1000
sa(dp550
g4
I6
sg5
I1
sg6
g7
sg8
g9
sg10
I5
sg11
F0.08
sg12
I200
sg13
I1000
sa(dp551
g4
I6
sg5
I1
sg6
g7
sg8
g9
sg10
I7
sg11
F0.08
sg12
I200
sg13
I1000
sa(dp552
g4
I6
sg5
I1
sg6
g7
sg8
g9
sg10
I9
sg11
F0.08
sg12
I200
sg13
I1000
sa(dp553
g4
I6
sg5
I1
sg6
g7
sg8
g9
sg10
I1
sg11
F0.09
sg12
I200
sg13
I1000
sa(dp554
g4
I6
sg5
I1
sg6
g7
sg8
g9
sg10
I3
sg11
F0.09
sg12
I200
sg13
I1000
sa(dp555
g4
I6
sg5
I1
sg6
g7
sg8
g9
sg10
I5
sg11
F0.09
sg12
I200
sg13
I1000
sa(dp556
g4
I6
sg5
I1
sg6
g7
sg8
g9
sg10
I7
sg11
F0.09
sg12
I200
sg13
I1000
sa(dp557
g4
I6
sg5
I1
sg6
g7
sg8
g9
sg10
I9
sg11
F0.09
sg12
I200
sg13
I1000
sa(dp558
g4
I6
sg5
I1
sg6
g7
sg8
g9
sg10
I1
sg11
F0.1
sg12
I200
sg13
I1000
sa(dp559
g4
I6
sg5
I1
sg6
g7
sg8
g9
sg10
I3
sg11
F0.1
sg12
I200
sg13
I1000
sa(dp560
g4
I6
sg5
I1
sg6
g7
sg8
g9
sg10
I5
sg11
F0.1
sg12
I200
sg13
I1000
sa(dp561
g4
I6
sg5
I1
sg6
g7
sg8
g9
sg10
I7
sg11
F0.1
sg12
I200
sg13
I1000
sa(dp562
g4
I6
sg5
I1
sg6
g7
sg8
g9
sg10
I9
sg11
F0.1
sg12
I200
sg13
I1000
sa(dp563
g4
I6
sg5
I1
sg6
g7
sg8
g9
sg10
I1
sg11
F0.11
sg12
I200
sg13
I1000
sa(dp564
g4
I6
sg5
I1
sg6
g7
sg8
g9
sg10
I3
sg11
F0.11
sg12
I200
sg13
I1000
sa(dp565
g4
I6
sg5
I1
sg6
g7
sg8
g9
sg10
I5
sg11
F0.11
sg12
I200
sg13
I1000
sa(dp566
g4
I6
sg5
I1
sg6
g7
sg8
g9
sg10
I7
sg11
F0.11
sg12
I200
sg13
I1000
sa(dp567
g4
I6
sg5
I1
sg6
g7
sg8
g9
sg10
I9
sg11
F0.11
sg12
I200
sg13
I1000
sa(dp568
g4
I6
sg5
I1
sg6
g7
sg8
g9
sg10
I1
sg11
F0.12
sg12
I200
sg13
I1000
sa(dp569
g4
I6
sg5
I1
sg6
g7
sg8
g9
sg10
I3
sg11
F0.12
sg12
I200
sg13
I1000
sa(dp570
g4
I6
sg5
I1
sg6
g7
sg8
g9
sg10
I5
sg11
F0.12
sg12
I200
sg13
I1000
sa(dp571
g4
I6
sg5
I1
sg6
g7
sg8
g9
sg10
I7
sg11
F0.12
sg12
I200
sg13
I1000
sa(dp572
g4
I6
sg5
I1
sg6
g7
sg8
g9
sg10
I9
sg11
F0.12
sg12
I200
sg13
I1000
sa(dp573
g4
I6
sg5
I1
sg6
g7
sg8
g9
sg10
I1
sg11
F0.13
sg12
I200
sg13
I1000
sa(dp574
g4
I6
sg5
I1
sg6
g7
sg8
g9
sg10
I3
sg11
F0.13
sg12
I200
sg13
I1000
sa(dp575
g4
I6
sg5
I1
sg6
g7
sg8
g9
sg10
I5
sg11
F0.13
sg12
I200
sg13
I1000
sa(dp576
g4
I6
sg5
I1
sg6
g7
sg8
g9
sg10
I7
sg11
F0.13
sg12
I200
sg13
I1000
sa(dp577
g4
I6
sg5
I1
sg6
g7
sg8
g9
sg10
I9
sg11
F0.13
sg12
I200
sg13
I1000
sa(dp578
g4
I6
sg5
I1
sg6
g7
sg8
g9
sg10
I1
sg11
F0.14
sg12
I200
sg13
I1000
sa(dp579
g4
I6
sg5
I1
sg6
g7
sg8
g9
sg10
I3
sg11
F0.14
sg12
I200
sg13
I1000
sa(dp580
g4
I6
sg5
I1
sg6
g7
sg8
g9
sg10
I5
sg11
F0.14
sg12
I200
sg13
I1000
sa(dp581
g4
I6
sg5
I1
sg6
g7
sg8
g9
sg10
I7
sg11
F0.14
sg12
I200
sg13
I1000
sa(dp582
g4
I6
sg5
I1
sg6
g7
sg8
g9
sg10
I9
sg11
F0.14
sg12
I200
sg13
I1000
sa(dp583
g4
I6
sg5
I1
sg6
g7
sg8
g9
sg10
I1
sg11
F0.15
sg12
I200
sg13
I1000
sa(dp584
g4
I6
sg5
I1
sg6
g7
sg8
g9
sg10
I3
sg11
F0.15
sg12
I200
sg13
I1000
sa(dp585
g4
I6
sg5
I1
sg6
g7
sg8
g9
sg10
I5
sg11
F0.15
sg12
I200
sg13
I1000
sa(dp586
g4
I6
sg5
I1
sg6
g7
sg8
g9
sg10
I7
sg11
F0.15
sg12
I200
sg13
I1000
sa(dp587
g4
I6
sg5
I1
sg6
g7
sg8
g9
sg10
I9
sg11
F0.15
sg12
I200
sg13
I1000
sa(dp588
g4
I6
sg5
I1
sg6
g7
sg8
g9
sg10
I1
sg11
F0.16
sg12
I200
sg13
I1000
sa(dp589
g4
I6
sg5
I1
sg6
g7
sg8
g9
sg10
I3
sg11
F0.16
sg12
I200
sg13
I1000
sa(dp590
g4
I6
sg5
I1
sg6
g7
sg8
g9
sg10
I5
sg11
F0.16
sg12
I200
sg13
I1000
sa(dp591
g4
I6
sg5
I1
sg6
g7
sg8
g9
sg10
I7
sg11
F0.16
sg12
I200
sg13
I1000
sa(dp592
g4
I6
sg5
I1
sg6
g7
sg8
g9
sg10
I9
sg11
F0.16
sg12
I200
sg13
I1000
sa(dp593
g4
I6
sg5
I1
sg6
g7
sg8
g9
sg10
I1
sg11
F0.17
sg12
I200
sg13
I1000
sa(dp594
g4
I6
sg5
I1
sg6
g7
sg8
g9
sg10
I3
sg11
F0.17
sg12
I200
sg13
I1000
sa(dp595
g4
I6
sg5
I1
sg6
g7
sg8
g9
sg10
I5
sg11
F0.17
sg12
I200
sg13
I1000
sa(dp596
g4
I6
sg5
I1
sg6
g7
sg8
g9
sg10
I7
sg11
F0.17
sg12
I200
sg13
I1000
sa(dp597
g4
I6
sg5
I1
sg6
g7
sg8
g9
sg10
I9
sg11
F0.17
sg12
I200
sg13
I1000
sa(dp598
g4
I6
sg5
I1
sg6
g7
sg8
g9
sg10
I1
sg11
F0.18
sg12
I200
sg13
I1000
sa(dp599
g4
I6
sg5
I1
sg6
g7
sg8
g9
sg10
I3
sg11
F0.18
sg12
I200
sg13
I1000
sa(dp600
g4
I6
sg5
I1
sg6
g7
sg8
g9
sg10
I5
sg11
F0.18
sg12
I200
sg13
I1000
sa(dp601
g4
I6
sg5
I1
sg6
g7
sg8
g9
sg10
I7
sg11
F0.18
sg12
I200
sg13
I1000
sa(dp602
g4
I6
sg5
I1
sg6
g7
sg8
g9
sg10
I9
sg11
F0.18
sg12
I200
sg13
I1000
sa(dp603
g4
I6
sg5
I1
sg6
g7
sg8
g9
sg10
I1
sg11
F0.19
sg12
I200
sg13
I1000
sa(dp604
g4
I6
sg5
I1
sg6
g7
sg8
g9
sg10
I3
sg11
F0.19
sg12
I200
sg13
I1000
sa(dp605
g4
I6
sg5
I1
sg6
g7
sg8
g9
sg10
I5
sg11
F0.19
sg12
I200
sg13
I1000
sa(dp606
g4
I6
sg5
I1
sg6
g7
sg8
g9
sg10
I7
sg11
F0.19
sg12
I200
sg13
I1000
sa(dp607
g4
I6
sg5
I1
sg6
g7
sg8
g9
sg10
I9
sg11
F0.19
sg12
I200
sg13
I1000
sa(dp608
g4
I6
sg5
I1
sg6
g7
sg8
g9
sg10
I1
sg11
F0.2
sg12
I200
sg13
I1000
sa(dp609
g4
I6
sg5
I1
sg6
g7
sg8
g9
sg10
I3
sg11
F0.2
sg12
I200
sg13
I1000
sa(dp610
g4
I6
sg5
I1
sg6
g7
sg8
g9
sg10
I5
sg11
F0.2
sg12
I200
sg13
I1000
sa(dp611
g4
I6
sg5
I1
sg6
g7
sg8
g9
sg10
I7
sg11
F0.2
sg12
I200
sg13
I1000
sa(dp612
g4
I6
sg5
I1
sg6
g7
sg8
g9
sg10
I9
sg11
F0.2
sg12
I200
sg13
I1000
sa(dp613
g4
I7
sg5
I1
sg6
g7
sg8
g9
sg10
I1
sg11
F0.01
sg12
I200
sg13
I1000
sa(dp614
g4
I7
sg5
I1
sg6
g7
sg8
g9
sg10
I3
sg11
F0.01
sg12
I200
sg13
I1000
sa(dp615
g4
I7
sg5
I1
sg6
g7
sg8
g9
sg10
I5
sg11
F0.01
sg12
I200
sg13
I1000
sa(dp616
g4
I7
sg5
I1
sg6
g7
sg8
g9
sg10
I7
sg11
F0.01
sg12
I200
sg13
I1000
sa(dp617
g4
I7
sg5
I1
sg6
g7
sg8
g9
sg10
I9
sg11
F0.01
sg12
I200
sg13
I1000
sa(dp618
g4
I7
sg5
I1
sg6
g7
sg8
g9
sg10
I1
sg11
F0.02
sg12
I200
sg13
I1000
sa(dp619
g4
I7
sg5
I1
sg6
g7
sg8
g9
sg10
I3
sg11
F0.02
sg12
I200
sg13
I1000
sa(dp620
g4
I7
sg5
I1
sg6
g7
sg8
g9
sg10
I5
sg11
F0.02
sg12
I200
sg13
I1000
sa(dp621
g4
I7
sg5
I1
sg6
g7
sg8
g9
sg10
I7
sg11
F0.02
sg12
I200
sg13
I1000
sa(dp622
g4
I7
sg5
I1
sg6
g7
sg8
g9
sg10
I9
sg11
F0.02
sg12
I200
sg13
I1000
sa(dp623
g4
I7
sg5
I1
sg6
g7
sg8
g9
sg10
I1
sg11
F0.03
sg12
I200
sg13
I1000
sa(dp624
g4
I7
sg5
I1
sg6
g7
sg8
g9
sg10
I3
sg11
F0.03
sg12
I200
sg13
I1000
sa(dp625
g4
I7
sg5
I1
sg6
g7
sg8
g9
sg10
I5
sg11
F0.03
sg12
I200
sg13
I1000
sa(dp626
g4
I7
sg5
I1
sg6
g7
sg8
g9
sg10
I7
sg11
F0.03
sg12
I200
sg13
I1000
sa(dp627
g4
I7
sg5
I1
sg6
g7
sg8
g9
sg10
I9
sg11
F0.03
sg12
I200
sg13
I1000
sa(dp628
g4
I7
sg5
I1
sg6
g7
sg8
g9
sg10
I1
sg11
F0.04
sg12
I200
sg13
I1000
sa(dp629
g4
I7
sg5
I1
sg6
g7
sg8
g9
sg10
I3
sg11
F0.04
sg12
I200
sg13
I1000
sa(dp630
g4
I7
sg5
I1
sg6
g7
sg8
g9
sg10
I5
sg11
F0.04
sg12
I200
sg13
I1000
sa(dp631
g4
I7
sg5
I1
sg6
g7
sg8
g9
sg10
I7
sg11
F0.04
sg12
I200
sg13
I1000
sa(dp632
g4
I7
sg5
I1
sg6
g7
sg8
g9
sg10
I9
sg11
F0.04
sg12
I200
sg13
I1000
sa(dp633
g4
I7
sg5
I1
sg6
g7
sg8
g9
sg10
I1
sg11
F0.05
sg12
I200
sg13
I1000
sa(dp634
g4
I7
sg5
I1
sg6
g7
sg8
g9
sg10
I3
sg11
F0.05
sg12
I200
sg13
I1000
sa(dp635
g4
I7
sg5
I1
sg6
g7
sg8
g9
sg10
I5
sg11
F0.05
sg12
I200
sg13
I1000
sa(dp636
g4
I7
sg5
I1
sg6
g7
sg8
g9
sg10
I7
sg11
F0.05
sg12
I200
sg13
I1000
sa(dp637
g4
I7
sg5
I1
sg6
g7
sg8
g9
sg10
I9
sg11
F0.05
sg12
I200
sg13
I1000
sa(dp638
g4
I7
sg5
I1
sg6
g7
sg8
g9
sg10
I1
sg11
F0.06
sg12
I200
sg13
I1000
sa(dp639
g4
I7
sg5
I1
sg6
g7
sg8
g9
sg10
I3
sg11
F0.06
sg12
I200
sg13
I1000
sa(dp640
g4
I7
sg5
I1
sg6
g7
sg8
g9
sg10
I5
sg11
F0.06
sg12
I200
sg13
I1000
sa(dp641
g4
I7
sg5
I1
sg6
g7
sg8
g9
sg10
I7
sg11
F0.06
sg12
I200
sg13
I1000
sa(dp642
g4
I7
sg5
I1
sg6
g7
sg8
g9
sg10
I9
sg11
F0.06
sg12
I200
sg13
I1000
sa(dp643
g4
I7
sg5
I1
sg6
g7
sg8
g9
sg10
I1
sg11
F0.07
sg12
I200
sg13
I1000
sa(dp644
g4
I7
sg5
I1
sg6
g7
sg8
g9
sg10
I3
sg11
F0.07
sg12
I200
sg13
I1000
sa(dp645
g4
I7
sg5
I1
sg6
g7
sg8
g9
sg10
I5
sg11
F0.07
sg12
I200
sg13
I1000
sa(dp646
g4
I7
sg5
I1
sg6
g7
sg8
g9
sg10
I7
sg11
F0.07
sg12
I200
sg13
I1000
sa(dp647
g4
I7
sg5
I1
sg6
g7
sg8
g9
sg10
I9
sg11
F0.07
sg12
I200
sg13
I1000
sa(dp648
g4
I7
sg5
I1
sg6
g7
sg8
g9
sg10
I1
sg11
F0.08
sg12
I200
sg13
I1000
sa(dp649
g4
I7
sg5
I1
sg6
g7
sg8
g9
sg10
I3
sg11
F0.08
sg12
I200
sg13
I1000
sa(dp650
g4
I7
sg5
I1
sg6
g7
sg8
g9
sg10
I5
sg11
F0.08
sg12
I200
sg13
I1000
sa(dp651
g4
I7
sg5
I1
sg6
g7
sg8
g9
sg10
I7
sg11
F0.08
sg12
I200
sg13
I1000
sa(dp652
g4
I7
sg5
I1
sg6
g7
sg8
g9
sg10
I9
sg11
F0.08
sg12
I200
sg13
I1000
sa(dp653
g4
I7
sg5
I1
sg6
g7
sg8
g9
sg10
I1
sg11
F0.09
sg12
I200
sg13
I1000
sa(dp654
g4
I7
sg5
I1
sg6
g7
sg8
g9
sg10
I3
sg11
F0.09
sg12
I200
sg13
I1000
sa(dp655
g4
I7
sg5
I1
sg6
g7
sg8
g9
sg10
I5
sg11
F0.09
sg12
I200
sg13
I1000
sa(dp656
g4
I7
sg5
I1
sg6
g7
sg8
g9
sg10
I7
sg11
F0.09
sg12
I200
sg13
I1000
sa(dp657
g4
I7
sg5
I1
sg6
g7
sg8
g9
sg10
I9
sg11
F0.09
sg12
I200
sg13
I1000
sa(dp658
g4
I7
sg5
I1
sg6
g7
sg8
g9
sg10
I1
sg11
F0.1
sg12
I200
sg13
I1000
sa(dp659
g4
I7
sg5
I1
sg6
g7
sg8
g9
sg10
I3
sg11
F0.1
sg12
I200
sg13
I1000
sa(dp660
g4
I7
sg5
I1
sg6
g7
sg8
g9
sg10
I5
sg11
F0.1
sg12
I200
sg13
I1000
sa(dp661
g4
I7
sg5
I1
sg6
g7
sg8
g9
sg10
I7
sg11
F0.1
sg12
I200
sg13
I1000
sa(dp662
g4
I7
sg5
I1
sg6
g7
sg8
g9
sg10
I9
sg11
F0.1
sg12
I200
sg13
I1000
sa(dp663
g4
I7
sg5
I1
sg6
g7
sg8
g9
sg10
I1
sg11
F0.11
sg12
I200
sg13
I1000
sa(dp664
g4
I7
sg5
I1
sg6
g7
sg8
g9
sg10
I3
sg11
F0.11
sg12
I200
sg13
I1000
sa(dp665
g4
I7
sg5
I1
sg6
g7
sg8
g9
sg10
I5
sg11
F0.11
sg12
I200
sg13
I1000
sa(dp666
g4
I7
sg5
I1
sg6
g7
sg8
g9
sg10
I7
sg11
F0.11
sg12
I200
sg13
I1000
sa(dp667
g4
I7
sg5
I1
sg6
g7
sg8
g9
sg10
I9
sg11
F0.11
sg12
I200
sg13
I1000
sa(dp668
g4
I7
sg5
I1
sg6
g7
sg8
g9
sg10
I1
sg11
F0.12
sg12
I200
sg13
I1000
sa(dp669
g4
I7
sg5
I1
sg6
g7
sg8
g9
sg10
I3
sg11
F0.12
sg12
I200
sg13
I1000
sa(dp670
g4
I7
sg5
I1
sg6
g7
sg8
g9
sg10
I5
sg11
F0.12
sg12
I200
sg13
I1000
sa(dp671
g4
I7
sg5
I1
sg6
g7
sg8
g9
sg10
I7
sg11
F0.12
sg12
I200
sg13
I1000
sa(dp672
g4
I7
sg5
I1
sg6
g7
sg8
g9
sg10
I9
sg11
F0.12
sg12
I200
sg13
I1000
sa(dp673
g4
I7
sg5
I1
sg6
g7
sg8
g9
sg10
I1
sg11
F0.13
sg12
I200
sg13
I1000
sa(dp674
g4
I7
sg5
I1
sg6
g7
sg8
g9
sg10
I3
sg11
F0.13
sg12
I200
sg13
I1000
sa(dp675
g4
I7
sg5
I1
sg6
g7
sg8
g9
sg10
I5
sg11
F0.13
sg12
I200
sg13
I1000
sa(dp676
g4
I7
sg5
I1
sg6
g7
sg8
g9
sg10
I7
sg11
F0.13
sg12
I200
sg13
I1000
sa(dp677
g4
I7
sg5
I1
sg6
g7
sg8
g9
sg10
I9
sg11
F0.13
sg12
I200
sg13
I1000
sa(dp678
g4
I7
sg5
I1
sg6
g7
sg8
g9
sg10
I1
sg11
F0.14
sg12
I200
sg13
I1000
sa(dp679
g4
I7
sg5
I1
sg6
g7
sg8
g9
sg10
I3
sg11
F0.14
sg12
I200
sg13
I1000
sa(dp680
g4
I7
sg5
I1
sg6
g7
sg8
g9
sg10
I5
sg11
F0.14
sg12
I200
sg13
I1000
sa(dp681
g4
I7
sg5
I1
sg6
g7
sg8
g9
sg10
I7
sg11
F0.14
sg12
I200
sg13
I1000
sa(dp682
g4
I7
sg5
I1
sg6
g7
sg8
g9
sg10
I9
sg11
F0.14
sg12
I200
sg13
I1000
sa(dp683
g4
I7
sg5
I1
sg6
g7
sg8
g9
sg10
I1
sg11
F0.15
sg12
I200
sg13
I1000
sa(dp684
g4
I7
sg5
I1
sg6
g7
sg8
g9
sg10
I3
sg11
F0.15
sg12
I200
sg13
I1000
sa(dp685
g4
I7
sg5
I1
sg6
g7
sg8
g9
sg10
I5
sg11
F0.15
sg12
I200
sg13
I1000
sa(dp686
g4
I7
sg5
I1
sg6
g7
sg8
g9
sg10
I7
sg11
F0.15
sg12
I200
sg13
I1000
sa(dp687
g4
I7
sg5
I1
sg6
g7
sg8
g9
sg10
I9
sg11
F0.15
sg12
I200
sg13
I1000
sa(dp688
g4
I7
sg5
I1
sg6
g7
sg8
g9
sg10
I1
sg11
F0.16
sg12
I200
sg13
I1000
sa(dp689
g4
I7
sg5
I1
sg6
g7
sg8
g9
sg10
I3
sg11
F0.16
sg12
I200
sg13
I1000
sa(dp690
g4
I7
sg5
I1
sg6
g7
sg8
g9
sg10
I5
sg11
F0.16
sg12
I200
sg13
I1000
sa(dp691
g4
I7
sg5
I1
sg6
g7
sg8
g9
sg10
I7
sg11
F0.16
sg12
I200
sg13
I1000
sa(dp692
g4
I7
sg5
I1
sg6
g7
sg8
g9
sg10
I9
sg11
F0.16
sg12
I200
sg13
I1000
sa(dp693
g4
I7
sg5
I1
sg6
g7
sg8
g9
sg10
I1
sg11
F0.17
sg12
I200
sg13
I1000
sa(dp694
g4
I7
sg5
I1
sg6
g7
sg8
g9
sg10
I3
sg11
F0.17
sg12
I200
sg13
I1000
sa(dp695
g4
I7
sg5
I1
sg6
g7
sg8
g9
sg10
I5
sg11
F0.17
sg12
I200
sg13
I1000
sa(dp696
g4
I7
sg5
I1
sg6
g7
sg8
g9
sg10
I7
sg11
F0.17
sg12
I200
sg13
I1000
sa(dp697
g4
I7
sg5
I1
sg6
g7
sg8
g9
sg10
I9
sg11
F0.17
sg12
I200
sg13
I1000
sa(dp698
g4
I7
sg5
I1
sg6
g7
sg8
g9
sg10
I1
sg11
F0.18
sg12
I200
sg13
I1000
sa(dp699
g4
I7
sg5
I1
sg6
g7
sg8
g9
sg10
I3
sg11
F0.18
sg12
I200
sg13
I1000
sa(dp700
g4
I7
sg5
I1
sg6
g7
sg8
g9
sg10
I5
sg11
F0.18
sg12
I200
sg13
I1000
sa(dp701
g4
I7
sg5
I1
sg6
g7
sg8
g9
sg10
I7
sg11
F0.18
sg12
I200
sg13
I1000
sa(dp702
g4
I7
sg5
I1
sg6
g7
sg8
g9
sg10
I9
sg11
F0.18
sg12
I200
sg13
I1000
sa(dp703
g4
I7
sg5
I1
sg6
g7
sg8
g9
sg10
I1
sg11
F0.19
sg12
I200
sg13
I1000
sa(dp704
g4
I7
sg5
I1
sg6
g7
sg8
g9
sg10
I3
sg11
F0.19
sg12
I200
sg13
I1000
sa(dp705
g4
I7
sg5
I1
sg6
g7
sg8
g9
sg10
I5
sg11
F0.19
sg12
I200
sg13
I1000
sa(dp706
g4
I7
sg5
I1
sg6
g7
sg8
g9
sg10
I7
sg11
F0.19
sg12
I200
sg13
I1000
sa(dp707
g4
I7
sg5
I1
sg6
g7
sg8
g9
sg10
I9
sg11
F0.19
sg12
I200
sg13
I1000
sa(dp708
g4
I7
sg5
I1
sg6
g7
sg8
g9
sg10
I1
sg11
F0.2
sg12
I200
sg13
I1000
sa(dp709
g4
I7
sg5
I1
sg6
g7
sg8
g9
sg10
I3
sg11
F0.2
sg12
I200
sg13
I1000
sa(dp710
g4
I7
sg5
I1
sg6
g7
sg8
g9
sg10
I5
sg11
F0.2
sg12
I200
sg13
I1000
sa(dp711
g4
I7
sg5
I1
sg6
g7
sg8
g9
sg10
I7
sg11
F0.2
sg12
I200
sg13
I1000
sa(dp712
g4
I7
sg5
I1
sg6
g7
sg8
g9
sg10
I9
sg11
F0.2
sg12
I200
sg13
I1000
sa(dp713
g4
I8
sg5
I1
sg6
g7
sg8
g9
sg10
I1
sg11
F0.01
sg12
I200
sg13
I1000
sa(dp714
g4
I8
sg5
I1
sg6
g7
sg8
g9
sg10
I3
sg11
F0.01
sg12
I200
sg13
I1000
sa(dp715
g4
I8
sg5
I1
sg6
g7
sg8
g9
sg10
I5
sg11
F0.01
sg12
I200
sg13
I1000
sa(dp716
g4
I8
sg5
I1
sg6
g7
sg8
g9
sg10
I7
sg11
F0.01
sg12
I200
sg13
I1000
sa(dp717
g4
I8
sg5
I1
sg6
g7
sg8
g9
sg10
I9
sg11
F0.01
sg12
I200
sg13
I1000
sa(dp718
g4
I8
sg5
I1
sg6
g7
sg8
g9
sg10
I1
sg11
F0.02
sg12
I200
sg13
I1000
sa(dp719
g4
I8
sg5
I1
sg6
g7
sg8
g9
sg10
I3
sg11
F0.02
sg12
I200
sg13
I1000
sa(dp720
g4
I8
sg5
I1
sg6
g7
sg8
g9
sg10
I5
sg11
F0.02
sg12
I200
sg13
I1000
sa(dp721
g4
I8
sg5
I1
sg6
g7
sg8
g9
sg10
I7
sg11
F0.02
sg12
I200
sg13
I1000
sa(dp722
g4
I8
sg5
I1
sg6
g7
sg8
g9
sg10
I9
sg11
F0.02
sg12
I200
sg13
I1000
sa(dp723
g4
I8
sg5
I1
sg6
g7
sg8
g9
sg10
I1
sg11
F0.03
sg12
I200
sg13
I1000
sa(dp724
g4
I8
sg5
I1
sg6
g7
sg8
g9
sg10
I3
sg11
F0.03
sg12
I200
sg13
I1000
sa(dp725
g4
I8
sg5
I1
sg6
g7
sg8
g9
sg10
I5
sg11
F0.03
sg12
I200
sg13
I1000
sa(dp726
g4
I8
sg5
I1
sg6
g7
sg8
g9
sg10
I7
sg11
F0.03
sg12
I200
sg13
I1000
sa(dp727
g4
I8
sg5
I1
sg6
g7
sg8
g9
sg10
I9
sg11
F0.03
sg12
I200
sg13
I1000
sa(dp728
g4
I8
sg5
I1
sg6
g7
sg8
g9
sg10
I1
sg11
F0.04
sg12
I200
sg13
I1000
sa(dp729
g4
I8
sg5
I1
sg6
g7
sg8
g9
sg10
I3
sg11
F0.04
sg12
I200
sg13
I1000
sa(dp730
g4
I8
sg5
I1
sg6
g7
sg8
g9
sg10
I5
sg11
F0.04
sg12
I200
sg13
I1000
sa(dp731
g4
I8
sg5
I1
sg6
g7
sg8
g9
sg10
I7
sg11
F0.04
sg12
I200
sg13
I1000
sa(dp732
g4
I8
sg5
I1
sg6
g7
sg8
g9
sg10
I9
sg11
F0.04
sg12
I200
sg13
I1000
sa(dp733
g4
I8
sg5
I1
sg6
g7
sg8
g9
sg10
I1
sg11
F0.05
sg12
I200
sg13
I1000
sa(dp734
g4
I8
sg5
I1
sg6
g7
sg8
g9
sg10
I3
sg11
F0.05
sg12
I200
sg13
I1000
sa(dp735
g4
I8
sg5
I1
sg6
g7
sg8
g9
sg10
I5
sg11
F0.05
sg12
I200
sg13
I1000
sa(dp736
g4
I8
sg5
I1
sg6
g7
sg8
g9
sg10
I7
sg11
F0.05
sg12
I200
sg13
I1000
sa(dp737
g4
I8
sg5
I1
sg6
g7
sg8
g9
sg10
I9
sg11
F0.05
sg12
I200
sg13
I1000
sa(dp738
g4
I8
sg5
I1
sg6
g7
sg8
g9
sg10
I1
sg11
F0.06
sg12
I200
sg13
I1000
sa(dp739
g4
I8
sg5
I1
sg6
g7
sg8
g9
sg10
I3
sg11
F0.06
sg12
I200
sg13
I1000
sa(dp740
g4
I8
sg5
I1
sg6
g7
sg8
g9
sg10
I5
sg11
F0.06
sg12
I200
sg13
I1000
sa(dp741
g4
I8
sg5
I1
sg6
g7
sg8
g9
sg10
I7
sg11
F0.06
sg12
I200
sg13
I1000
sa(dp742
g4
I8
sg5
I1
sg6
g7
sg8
g9
sg10
I9
sg11
F0.06
sg12
I200
sg13
I1000
sa(dp743
g4
I8
sg5
I1
sg6
g7
sg8
g9
sg10
I1
sg11
F0.07
sg12
I200
sg13
I1000
sa(dp744
g4
I8
sg5
I1
sg6
g7
sg8
g9
sg10
I3
sg11
F0.07
sg12
I200
sg13
I1000
sa(dp745
g4
I8
sg5
I1
sg6
g7
sg8
g9
sg10
I5
sg11
F0.07
sg12
I200
sg13
I1000
sa(dp746
g4
I8
sg5
I1
sg6
g7
sg8
g9
sg10
I7
sg11
F0.07
sg12
I200
sg13
I1000
sa(dp747
g4
I8
sg5
I1
sg6
g7
sg8
g9
sg10
I9
sg11
F0.07
sg12
I200
sg13
I1000
sa(dp748
g4
I8
sg5
I1
sg6
g7
sg8
g9
sg10
I1
sg11
F0.08
sg12
I200
sg13
I1000
sa(dp749
g4
I8
sg5
I1
sg6
g7
sg8
g9
sg10
I3
sg11
F0.08
sg12
I200
sg13
I1000
sa(dp750
g4
I8
sg5
I1
sg6
g7
sg8
g9
sg10
I5
sg11
F0.08
sg12
I200
sg13
I1000
sa(dp751
g4
I8
sg5
I1
sg6
g7
sg8
g9
sg10
I7
sg11
F0.08
sg12
I200
sg13
I1000
sa(dp752
g4
I8
sg5
I1
sg6
g7
sg8
g9
sg10
I9
sg11
F0.08
sg12
I200
sg13
I1000
sa(dp753
g4
I8
sg5
I1
sg6
g7
sg8
g9
sg10
I1
sg11
F0.09
sg12
I200
sg13
I1000
sa(dp754
g4
I8
sg5
I1
sg6
g7
sg8
g9
sg10
I3
sg11
F0.09
sg12
I200
sg13
I1000
sa(dp755
g4
I8
sg5
I1
sg6
g7
sg8
g9
sg10
I5
sg11
F0.09
sg12
I200
sg13
I1000
sa(dp756
g4
I8
sg5
I1
sg6
g7
sg8
g9
sg10
I7
sg11
F0.09
sg12
I200
sg13
I1000
sa(dp757
g4
I8
sg5
I1
sg6
g7
sg8
g9
sg10
I9
sg11
F0.09
sg12
I200
sg13
I1000
sa(dp758
g4
I8
sg5
I1
sg6
g7
sg8
g9
sg10
I1
sg11
F0.1
sg12
I200
sg13
I1000
sa(dp759
g4
I8
sg5
I1
sg6
g7
sg8
g9
sg10
I3
sg11
F0.1
sg12
I200
sg13
I1000
sa(dp760
g4
I8
sg5
I1
sg6
g7
sg8
g9
sg10
I5
sg11
F0.1
sg12
I200
sg13
I1000
sa(dp761
g4
I8
sg5
I1
sg6
g7
sg8
g9
sg10
I7
sg11
F0.1
sg12
I200
sg13
I1000
sa(dp762
g4
I8
sg5
I1
sg6
g7
sg8
g9
sg10
I9
sg11
F0.1
sg12
I200
sg13
I1000
sa(dp763
g4
I8
sg5
I1
sg6
g7
sg8
g9
sg10
I1
sg11
F0.11
sg12
I200
sg13
I1000
sa(dp764
g4
I8
sg5
I1
sg6
g7
sg8
g9
sg10
I3
sg11
F0.11
sg12
I200
sg13
I1000
sa(dp765
g4
I8
sg5
I1
sg6
g7
sg8
g9
sg10
I5
sg11
F0.11
sg12
I200
sg13
I1000
sa(dp766
g4
I8
sg5
I1
sg6
g7
sg8
g9
sg10
I7
sg11
F0.11
sg12
I200
sg13
I1000
sa(dp767
g4
I8
sg5
I1
sg6
g7
sg8
g9
sg10
I9
sg11
F0.11
sg12
I200
sg13
I1000
sa(dp768
g4
I8
sg5
I1
sg6
g7
sg8
g9
sg10
I1
sg11
F0.12
sg12
I200
sg13
I1000
sa(dp769
g4
I8
sg5
I1
sg6
g7
sg8
g9
sg10
I3
sg11
F0.12
sg12
I200
sg13
I1000
sa(dp770
g4
I8
sg5
I1
sg6
g7
sg8
g9
sg10
I5
sg11
F0.12
sg12
I200
sg13
I1000
sa(dp771
g4
I8
sg5
I1
sg6
g7
sg8
g9
sg10
I7
sg11
F0.12
sg12
I200
sg13
I1000
sa(dp772
g4
I8
sg5
I1
sg6
g7
sg8
g9
sg10
I9
sg11
F0.12
sg12
I200
sg13
I1000
sa(dp773
g4
I8
sg5
I1
sg6
g7
sg8
g9
sg10
I1
sg11
F0.13
sg12
I200
sg13
I1000
sa(dp774
g4
I8
sg5
I1
sg6
g7
sg8
g9
sg10
I3
sg11
F0.13
sg12
I200
sg13
I1000
sa(dp775
g4
I8
sg5
I1
sg6
g7
sg8
g9
sg10
I5
sg11
F0.13
sg12
I200
sg13
I1000
sa(dp776
g4
I8
sg5
I1
sg6
g7
sg8
g9
sg10
I7
sg11
F0.13
sg12
I200
sg13
I1000
sa(dp777
g4
I8
sg5
I1
sg6
g7
sg8
g9
sg10
I9
sg11
F0.13
sg12
I200
sg13
I1000
sa(dp778
g4
I8
sg5
I1
sg6
g7
sg8
g9
sg10
I1
sg11
F0.14
sg12
I200
sg13
I1000
sa(dp779
g4
I8
sg5
I1
sg6
g7
sg8
g9
sg10
I3
sg11
F0.14
sg12
I200
sg13
I1000
sa(dp780
g4
I8
sg5
I1
sg6
g7
sg8
g9
sg10
I5
sg11
F0.14
sg12
I200
sg13
I1000
sa(dp781
g4
I8
sg5
I1
sg6
g7
sg8
g9
sg10
I7
sg11
F0.14
sg12
I200
sg13
I1000
sa(dp782
g4
I8
sg5
I1
sg6
g7
sg8
g9
sg10
I9
sg11
F0.14
sg12
I200
sg13
I1000
sa(dp783
g4
I8
sg5
I1
sg6
g7
sg8
g9
sg10
I1
sg11
F0.15
sg12
I200
sg13
I1000
sa(dp784
g4
I8
sg5
I1
sg6
g7
sg8
g9
sg10
I3
sg11
F0.15
sg12
I200
sg13
I1000
sa(dp785
g4
I8
sg5
I1
sg6
g7
sg8
g9
sg10
I5
sg11
F0.15
sg12
I200
sg13
I1000
sa(dp786
g4
I8
sg5
I1
sg6
g7
sg8
g9
sg10
I7
sg11
F0.15
sg12
I200
sg13
I1000
sa(dp787
g4
I8
sg5
I1
sg6
g7
sg8
g9
sg10
I9
sg11
F0.15
sg12
I200
sg13
I1000
sa(dp788
g4
I8
sg5
I1
sg6
g7
sg8
g9
sg10
I1
sg11
F0.16
sg12
I200
sg13
I1000
sa(dp789
g4
I8
sg5
I1
sg6
g7
sg8
g9
sg10
I3
sg11
F0.16
sg12
I200
sg13
I1000
sa(dp790
g4
I8
sg5
I1
sg6
g7
sg8
g9
sg10
I5
sg11
F0.16
sg12
I200
sg13
I1000
sa(dp791
g4
I8
sg5
I1
sg6
g7
sg8
g9
sg10
I7
sg11
F0.16
sg12
I200
sg13
I1000
sa(dp792
g4
I8
sg5
I1
sg6
g7
sg8
g9
sg10
I9
sg11
F0.16
sg12
I200
sg13
I1000
sa(dp793
g4
I8
sg5
I1
sg6
g7
sg8
g9
sg10
I1
sg11
F0.17
sg12
I200
sg13
I1000
sa(dp794
g4
I8
sg5
I1
sg6
g7
sg8
g9
sg10
I3
sg11
F0.17
sg12
I200
sg13
I1000
sa(dp795
g4
I8
sg5
I1
sg6
g7
sg8
g9
sg10
I5
sg11
F0.17
sg12
I200
sg13
I1000
sa(dp796
g4
I8
sg5
I1
sg6
g7
sg8
g9
sg10
I7
sg11
F0.17
sg12
I200
sg13
I1000
sa(dp797
g4
I8
sg5
I1
sg6
g7
sg8
g9
sg10
I9
sg11
F0.17
sg12
I200
sg13
I1000
sa(dp798
g4
I8
sg5
I1
sg6
g7
sg8
g9
sg10
I1
sg11
F0.18
sg12
I200
sg13
I1000
sa(dp799
g4
I8
sg5
I1
sg6
g7
sg8
g9
sg10
I3
sg11
F0.18
sg12
I200
sg13
I1000
sa(dp800
g4
I8
sg5
I1
sg6
g7
sg8
g9
sg10
I5
sg11
F0.18
sg12
I200
sg13
I1000
sa(dp801
g4
I8
sg5
I1
sg6
g7
sg8
g9
sg10
I7
sg11
F0.18
sg12
I200
sg13
I1000
sa(dp802
g4
I8
sg5
I1
sg6
g7
sg8
g9
sg10
I9
sg11
F0.18
sg12
I200
sg13
I1000
sa(dp803
g4
I8
sg5
I1
sg6
g7
sg8
g9
sg10
I1
sg11
F0.19
sg12
I200
sg13
I1000
sa(dp804
g4
I8
sg5
I1
sg6
g7
sg8
g9
sg10
I3
sg11
F0.19
sg12
I200
sg13
I1000
sa(dp805
g4
I8
sg5
I1
sg6
g7
sg8
g9
sg10
I5
sg11
F0.19
sg12
I200
sg13
I1000
sa(dp806
g4
I8
sg5
I1
sg6
g7
sg8
g9
sg10
I7
sg11
F0.19
sg12
I200
sg13
I1000
sa(dp807
g4
I8
sg5
I1
sg6
g7
sg8
g9
sg10
I9
sg11
F0.19
sg12
I200
sg13
I1000
sa(dp808
g4
I8
sg5
I1
sg6
g7
sg8
g9
sg10
I1
sg11
F0.2
sg12
I200
sg13
I1000
sa(dp809
g4
I8
sg5
I1
sg6
g7
sg8
g9
sg10
I3
sg11
F0.2
sg12
I200
sg13
I1000
sa(dp810
g4
I8
sg5
I1
sg6
g7
sg8
g9
sg10
I5
sg11
F0.2
sg12
I200
sg13
I1000
sa(dp811
g4
I8
sg5
I1
sg6
g7
sg8
g9
sg10
I7
sg11
F0.2
sg12
I200
sg13
I1000
sa(dp812
g4
I8
sg5
I1
sg6
g7
sg8
g9
sg10
I9
sg11
F0.2
sg12
I200
sg13
I1000
sa(dp813
g4
I9
sg5
I1
sg6
g7
sg8
g9
sg10
I1
sg11
F0.01
sg12
I200
sg13
I1000
sa(dp814
g4
I9
sg5
I1
sg6
g7
sg8
g9
sg10
I3
sg11
F0.01
sg12
I200
sg13
I1000
sa(dp815
g4
I9
sg5
I1
sg6
g7
sg8
g9
sg10
I5
sg11
F0.01
sg12
I200
sg13
I1000
sa(dp816
g4
I9
sg5
I1
sg6
g7
sg8
g9
sg10
I7
sg11
F0.01
sg12
I200
sg13
I1000
sa(dp817
g4
I9
sg5
I1
sg6
g7
sg8
g9
sg10
I9
sg11
F0.01
sg12
I200
sg13
I1000
sa(dp818
g4
I9
sg5
I1
sg6
g7
sg8
g9
sg10
I1
sg11
F0.02
sg12
I200
sg13
I1000
sa(dp819
g4
I9
sg5
I1
sg6
g7
sg8
g9
sg10
I3
sg11
F0.02
sg12
I200
sg13
I1000
sa(dp820
g4
I9
sg5
I1
sg6
g7
sg8
g9
sg10
I5
sg11
F0.02
sg12
I200
sg13
I1000
sa(dp821
g4
I9
sg5
I1
sg6
g7
sg8
g9
sg10
I7
sg11
F0.02
sg12
I200
sg13
I1000
sa(dp822
g4
I9
sg5
I1
sg6
g7
sg8
g9
sg10
I9
sg11
F0.02
sg12
I200
sg13
I1000
sa(dp823
g4
I9
sg5
I1
sg6
g7
sg8
g9
sg10
I1
sg11
F0.03
sg12
I200
sg13
I1000
sa(dp824
g4
I9
sg5
I1
sg6
g7
sg8
g9
sg10
I3
sg11
F0.03
sg12
I200
sg13
I1000
sa(dp825
g4
I9
sg5
I1
sg6
g7
sg8
g9
sg10
I5
sg11
F0.03
sg12
I200
sg13
I1000
sa(dp826
g4
I9
sg5
I1
sg6
g7
sg8
g9
sg10
I7
sg11
F0.03
sg12
I200
sg13
I1000
sa(dp827
g4
I9
sg5
I1
sg6
g7
sg8
g9
sg10
I9
sg11
F0.03
sg12
I200
sg13
I1000
sa(dp828
g4
I9
sg5
I1
sg6
g7
sg8
g9
sg10
I1
sg11
F0.04
sg12
I200
sg13
I1000
sa(dp829
g4
I9
sg5
I1
sg6
g7
sg8
g9
sg10
I3
sg11
F0.04
sg12
I200
sg13
I1000
sa(dp830
g4
I9
sg5
I1
sg6
g7
sg8
g9
sg10
I5
sg11
F0.04
sg12
I200
sg13
I1000
sa(dp831
g4
I9
sg5
I1
sg6
g7
sg8
g9
sg10
I7
sg11
F0.04
sg12
I200
sg13
I1000
sa(dp832
g4
I9
sg5
I1
sg6
g7
sg8
g9
sg10
I9
sg11
F0.04
sg12
I200
sg13
I1000
sa(dp833
g4
I9
sg5
I1
sg6
g7
sg8
g9
sg10
I1
sg11
F0.05
sg12
I200
sg13
I1000
sa(dp834
g4
I9
sg5
I1
sg6
g7
sg8
g9
sg10
I3
sg11
F0.05
sg12
I200
sg13
I1000
sa(dp835
g4
I9
sg5
I1
sg6
g7
sg8
g9
sg10
I5
sg11
F0.05
sg12
I200
sg13
I1000
sa(dp836
g4
I9
sg5
I1
sg6
g7
sg8
g9
sg10
I7
sg11
F0.05
sg12
I200
sg13
I1000
sa(dp837
g4
I9
sg5
I1
sg6
g7
sg8
g9
sg10
I9
sg11
F0.05
sg12
I200
sg13
I1000
sa(dp838
g4
I9
sg5
I1
sg6
g7
sg8
g9
sg10
I1
sg11
F0.06
sg12
I200
sg13
I1000
sa(dp839
g4
I9
sg5
I1
sg6
g7
sg8
g9
sg10
I3
sg11
F0.06
sg12
I200
sg13
I1000
sa(dp840
g4
I9
sg5
I1
sg6
g7
sg8
g9
sg10
I5
sg11
F0.06
sg12
I200
sg13
I1000
sa(dp841
g4
I9
sg5
I1
sg6
g7
sg8
g9
sg10
I7
sg11
F0.06
sg12
I200
sg13
I1000
sa(dp842
g4
I9
sg5
I1
sg6
g7
sg8
g9
sg10
I9
sg11
F0.06
sg12
I200
sg13
I1000
sa(dp843
g4
I9
sg5
I1
sg6
g7
sg8
g9
sg10
I1
sg11
F0.07
sg12
I200
sg13
I1000
sa(dp844
g4
I9
sg5
I1
sg6
g7
sg8
g9
sg10
I3
sg11
F0.07
sg12
I200
sg13
I1000
sa(dp845
g4
I9
sg5
I1
sg6
g7
sg8
g9
sg10
I5
sg11
F0.07
sg12
I200
sg13
I1000
sa(dp846
g4
I9
sg5
I1
sg6
g7
sg8
g9
sg10
I7
sg11
F0.07
sg12
I200
sg13
I1000
sa(dp847
g4
I9
sg5
I1
sg6
g7
sg8
g9
sg10
I9
sg11
F0.07
sg12
I200
sg13
I1000
sa(dp848
g4
I9
sg5
I1
sg6
g7
sg8
g9
sg10
I1
sg11
F0.08
sg12
I200
sg13
I1000
sa(dp849
g4
I9
sg5
I1
sg6
g7
sg8
g9
sg10
I3
sg11
F0.08
sg12
I200
sg13
I1000
sa(dp850
g4
I9
sg5
I1
sg6
g7
sg8
g9
sg10
I5
sg11
F0.08
sg12
I200
sg13
I1000
sa(dp851
g4
I9
sg5
I1
sg6
g7
sg8
g9
sg10
I7
sg11
F0.08
sg12
I200
sg13
I1000
sa(dp852
g4
I9
sg5
I1
sg6
g7
sg8
g9
sg10
I9
sg11
F0.08
sg12
I200
sg13
I1000
sa(dp853
g4
I9
sg5
I1
sg6
g7
sg8
g9
sg10
I1
sg11
F0.09
sg12
I200
sg13
I1000
sa(dp854
g4
I9
sg5
I1
sg6
g7
sg8
g9
sg10
I3
sg11
F0.09
sg12
I200
sg13
I1000
sa(dp855
g4
I9
sg5
I1
sg6
g7
sg8
g9
sg10
I5
sg11
F0.09
sg12
I200
sg13
I1000
sa(dp856
g4
I9
sg5
I1
sg6
g7
sg8
g9
sg10
I7
sg11
F0.09
sg12
I200
sg13
I1000
sa(dp857
g4
I9
sg5
I1
sg6
g7
sg8
g9
sg10
I9
sg11
F0.09
sg12
I200
sg13
I1000
sa(dp858
g4
I9
sg5
I1
sg6
g7
sg8
g9
sg10
I1
sg11
F0.1
sg12
I200
sg13
I1000
sa(dp859
g4
I9
sg5
I1
sg6
g7
sg8
g9
sg10
I3
sg11
F0.1
sg12
I200
sg13
I1000
sa(dp860
g4
I9
sg5
I1
sg6
g7
sg8
g9
sg10
I5
sg11
F0.1
sg12
I200
sg13
I1000
sa(dp861
g4
I9
sg5
I1
sg6
g7
sg8
g9
sg10
I7
sg11
F0.1
sg12
I200
sg13
I1000
sa(dp862
g4
I9
sg5
I1
sg6
g7
sg8
g9
sg10
I9
sg11
F0.1
sg12
I200
sg13
I1000
sa(dp863
g4
I9
sg5
I1
sg6
g7
sg8
g9
sg10
I1
sg11
F0.11
sg12
I200
sg13
I1000
sa(dp864
g4
I9
sg5
I1
sg6
g7
sg8
g9
sg10
I3
sg11
F0.11
sg12
I200
sg13
I1000
sa(dp865
g4
I9
sg5
I1
sg6
g7
sg8
g9
sg10
I5
sg11
F0.11
sg12
I200
sg13
I1000
sa(dp866
g4
I9
sg5
I1
sg6
g7
sg8
g9
sg10
I7
sg11
F0.11
sg12
I200
sg13
I1000
sa(dp867
g4
I9
sg5
I1
sg6
g7
sg8
g9
sg10
I9
sg11
F0.11
sg12
I200
sg13
I1000
sa(dp868
g4
I9
sg5
I1
sg6
g7
sg8
g9
sg10
I1
sg11
F0.12
sg12
I200
sg13
I1000
sa(dp869
g4
I9
sg5
I1
sg6
g7
sg8
g9
sg10
I3
sg11
F0.12
sg12
I200
sg13
I1000
sa(dp870
g4
I9
sg5
I1
sg6
g7
sg8
g9
sg10
I5
sg11
F0.12
sg12
I200
sg13
I1000
sa(dp871
g4
I9
sg5
I1
sg6
g7
sg8
g9
sg10
I7
sg11
F0.12
sg12
I200
sg13
I1000
sa(dp872
g4
I9
sg5
I1
sg6
g7
sg8
g9
sg10
I9
sg11
F0.12
sg12
I200
sg13
I1000
sa(dp873
g4
I9
sg5
I1
sg6
g7
sg8
g9
sg10
I1
sg11
F0.13
sg12
I200
sg13
I1000
sa(dp874
g4
I9
sg5
I1
sg6
g7
sg8
g9
sg10
I3
sg11
F0.13
sg12
I200
sg13
I1000
sa(dp875
g4
I9
sg5
I1
sg6
g7
sg8
g9
sg10
I5
sg11
F0.13
sg12
I200
sg13
I1000
sa(dp876
g4
I9
sg5
I1
sg6
g7
sg8
g9
sg10
I7
sg11
F0.13
sg12
I200
sg13
I1000
sa(dp877
g4
I9
sg5
I1
sg6
g7
sg8
g9
sg10
I9
sg11
F0.13
sg12
I200
sg13
I1000
sa(dp878
g4
I9
sg5
I1
sg6
g7
sg8
g9
sg10
I1
sg11
F0.14
sg12
I200
sg13
I1000
sa(dp879
g4
I9
sg5
I1
sg6
g7
sg8
g9
sg10
I3
sg11
F0.14
sg12
I200
sg13
I1000
sa(dp880
g4
I9
sg5
I1
sg6
g7
sg8
g9
sg10
I5
sg11
F0.14
sg12
I200
sg13
I1000
sa(dp881
g4
I9
sg5
I1
sg6
g7
sg8
g9
sg10
I7
sg11
F0.14
sg12
I200
sg13
I1000
sa(dp882
g4
I9
sg5
I1
sg6
g7
sg8
g9
sg10
I9
sg11
F0.14
sg12
I200
sg13
I1000
sa(dp883
g4
I9
sg5
I1
sg6
g7
sg8
g9
sg10
I1
sg11
F0.15
sg12
I200
sg13
I1000
sa(dp884
g4
I9
sg5
I1
sg6
g7
sg8
g9
sg10
I3
sg11
F0.15
sg12
I200
sg13
I1000
sa(dp885
g4
I9
sg5
I1
sg6
g7
sg8
g9
sg10
I5
sg11
F0.15
sg12
I200
sg13
I1000
sa(dp886
g4
I9
sg5
I1
sg6
g7
sg8
g9
sg10
I7
sg11
F0.15
sg12
I200
sg13
I1000
sa(dp887
g4
I9
sg5
I1
sg6
g7
sg8
g9
sg10
I9
sg11
F0.15
sg12
I200
sg13
I1000
sa(dp888
g4
I9
sg5
I1
sg6
g7
sg8
g9
sg10
I1
sg11
F0.16
sg12
I200
sg13
I1000
sa(dp889
g4
I9
sg5
I1
sg6
g7
sg8
g9
sg10
I3
sg11
F0.16
sg12
I200
sg13
I1000
sa(dp890
g4
I9
sg5
I1
sg6
g7
sg8
g9
sg10
I5
sg11
F0.16
sg12
I200
sg13
I1000
sa(dp891
g4
I9
sg5
I1
sg6
g7
sg8
g9
sg10
I7
sg11
F0.16
sg12
I200
sg13
I1000
sa(dp892
g4
I9
sg5
I1
sg6
g7
sg8
g9
sg10
I9
sg11
F0.16
sg12
I200
sg13
I1000
sa(dp893
g4
I9
sg5
I1
sg6
g7
sg8
g9
sg10
I1
sg11
F0.17
sg12
I200
sg13
I1000
sa(dp894
g4
I9
sg5
I1
sg6
g7
sg8
g9
sg10
I3
sg11
F0.17
sg12
I200
sg13
I1000
sa(dp895
g4
I9
sg5
I1
sg6
g7
sg8
g9
sg10
I5
sg11
F0.17
sg12
I200
sg13
I1000
sa(dp896
g4
I9
sg5
I1
sg6
g7
sg8
g9
sg10
I7
sg11
F0.17
sg12
I200
sg13
I1000
sa(dp897
g4
I9
sg5
I1
sg6
g7
sg8
g9
sg10
I9
sg11
F0.17
sg12
I200
sg13
I1000
sa(dp898
g4
I9
sg5
I1
sg6
g7
sg8
g9
sg10
I1
sg11
F0.18
sg12
I200
sg13
I1000
sa(dp899
g4
I9
sg5
I1
sg6
g7
sg8
g9
sg10
I3
sg11
F0.18
sg12
I200
sg13
I1000
sa(dp900
g4
I9
sg5
I1
sg6
g7
sg8
g9
sg10
I5
sg11
F0.18
sg12
I200
sg13
I1000
sa(dp901
g4
I9
sg5
I1
sg6
g7
sg8
g9
sg10
I7
sg11
F0.18
sg12
I200
sg13
I1000
sa(dp902
g4
I9
sg5
I1
sg6
g7
sg8
g9
sg10
I9
sg11
F0.18
sg12
I200
sg13
I1000
sa(dp903
g4
I9
sg5
I1
sg6
g7
sg8
g9
sg10
I1
sg11
F0.19
sg12
I200
sg13
I1000
sa(dp904
g4
I9
sg5
I1
sg6
g7
sg8
g9
sg10
I3
sg11
F0.19
sg12
I200
sg13
I1000
sa(dp905
g4
I9
sg5
I1
sg6
g7
sg8
g9
sg10
I5
sg11
F0.19
sg12
I200
sg13
I1000
sa(dp906
g4
I9
sg5
I1
sg6
g7
sg8
g9
sg10
I7
sg11
F0.19
sg12
I200
sg13
I1000
sa(dp907
g4
I9
sg5
I1
sg6
g7
sg8
g9
sg10
I9
sg11
F0.19
sg12
I200
sg13
I1000
sa(dp908
g4
I9
sg5
I1
sg6
g7
sg8
g9
sg10
I1
sg11
F0.2
sg12
I200
sg13
I1000
sa(dp909
g4
I9
sg5
I1
sg6
g7
sg8
g9
sg10
I3
sg11
F0.2
sg12
I200
sg13
I1000
sa(dp910
g4
I9
sg5
I1
sg6
g7
sg8
g9
sg10
I5
sg11
F0.2
sg12
I200
sg13
I1000
sa(dp911
g4
I9
sg5
I1
sg6
g7
sg8
g9
sg10
I7
sg11
F0.2
sg12
I200
sg13
I1000
sa(dp912
g4
I9
sg5
I1
sg6
g7
sg8
g9
sg10
I9
sg11
F0.2
sg12
I200
sg13
I1000
sa(dp913
g4
I10
sg5
I1
sg6
g7
sg8
g9
sg10
I1
sg11
F0.01
sg12
I200
sg13
I1000
sa(dp914
g4
I10
sg5
I1
sg6
g7
sg8
g9
sg10
I3
sg11
F0.01
sg12
I200
sg13
I1000
sa(dp915
g4
I10
sg5
I1
sg6
g7
sg8
g9
sg10
I5
sg11
F0.01
sg12
I200
sg13
I1000
sa(dp916
g4
I10
sg5
I1
sg6
g7
sg8
g9
sg10
I7
sg11
F0.01
sg12
I200
sg13
I1000
sa(dp917
g4
I10
sg5
I1
sg6
g7
sg8
g9
sg10
I9
sg11
F0.01
sg12
I200
sg13
I1000
sa(dp918
g4
I10
sg5
I1
sg6
g7
sg8
g9
sg10
I1
sg11
F0.02
sg12
I200
sg13
I1000
sa(dp919
g4
I10
sg5
I1
sg6
g7
sg8
g9
sg10
I3
sg11
F0.02
sg12
I200
sg13
I1000
sa(dp920
g4
I10
sg5
I1
sg6
g7
sg8
g9
sg10
I5
sg11
F0.02
sg12
I200
sg13
I1000
sa(dp921
g4
I10
sg5
I1
sg6
g7
sg8
g9
sg10
I7
sg11
F0.02
sg12
I200
sg13
I1000
sa(dp922
g4
I10
sg5
I1
sg6
g7
sg8
g9
sg10
I9
sg11
F0.02
sg12
I200
sg13
I1000
sa(dp923
g4
I10
sg5
I1
sg6
g7
sg8
g9
sg10
I1
sg11
F0.03
sg12
I200
sg13
I1000
sa(dp924
g4
I10
sg5
I1
sg6
g7
sg8
g9
sg10
I3
sg11
F0.03
sg12
I200
sg13
I1000
sa(dp925
g4
I10
sg5
I1
sg6
g7
sg8
g9
sg10
I5
sg11
F0.03
sg12
I200
sg13
I1000
sa(dp926
g4
I10
sg5
I1
sg6
g7
sg8
g9
sg10
I7
sg11
F0.03
sg12
I200
sg13
I1000
sa(dp927
g4
I10
sg5
I1
sg6
g7
sg8
g9
sg10
I9
sg11
F0.03
sg12
I200
sg13
I1000
sa(dp928
g4
I10
sg5
I1
sg6
g7
sg8
g9
sg10
I1
sg11
F0.04
sg12
I200
sg13
I1000
sa(dp929
g4
I10
sg5
I1
sg6
g7
sg8
g9
sg10
I3
sg11
F0.04
sg12
I200
sg13
I1000
sa(dp930
g4
I10
sg5
I1
sg6
g7
sg8
g9
sg10
I5
sg11
F0.04
sg12
I200
sg13
I1000
sa(dp931
g4
I10
sg5
I1
sg6
g7
sg8
g9
sg10
I7
sg11
F0.04
sg12
I200
sg13
I1000
sa(dp932
g4
I10
sg5
I1
sg6
g7
sg8
g9
sg10
I9
sg11
F0.04
sg12
I200
sg13
I1000
sa(dp933
g4
I10
sg5
I1
sg6
g7
sg8
g9
sg10
I1
sg11
F0.05
sg12
I200
sg13
I1000
sa(dp934
g4
I10
sg5
I1
sg6
g7
sg8
g9
sg10
I3
sg11
F0.05
sg12
I200
sg13
I1000
sa(dp935
g4
I10
sg5
I1
sg6
g7
sg8
g9
sg10
I5
sg11
F0.05
sg12
I200
sg13
I1000
sa(dp936
g4
I10
sg5
I1
sg6
g7
sg8
g9
sg10
I7
sg11
F0.05
sg12
I200
sg13
I1000
sa(dp937
g4
I10
sg5
I1
sg6
g7
sg8
g9
sg10
I9
sg11
F0.05
sg12
I200
sg13
I1000
sa(dp938
g4
I10
sg5
I1
sg6
g7
sg8
g9
sg10
I1
sg11
F0.06
sg12
I200
sg13
I1000
sa(dp939
g4
I10
sg5
I1
sg6
g7
sg8
g9
sg10
I3
sg11
F0.06
sg12
I200
sg13
I1000
sa(dp940
g4
I10
sg5
I1
sg6
g7
sg8
g9
sg10
I5
sg11
F0.06
sg12
I200
sg13
I1000
sa(dp941
g4
I10
sg5
I1
sg6
g7
sg8
g9
sg10
I7
sg11
F0.06
sg12
I200
sg13
I1000
sa(dp942
g4
I10
sg5
I1
sg6
g7
sg8
g9
sg10
I9
sg11
F0.06
sg12
I200
sg13
I1000
sa(dp943
g4
I10
sg5
I1
sg6
g7
sg8
g9
sg10
I1
sg11
F0.07
sg12
I200
sg13
I1000
sa(dp944
g4
I10
sg5
I1
sg6
g7
sg8
g9
sg10
I3
sg11
F0.07
sg12
I200
sg13
I1000
sa(dp945
g4
I10
sg5
I1
sg6
g7
sg8
g9
sg10
I5
sg11
F0.07
sg12
I200
sg13
I1000
sa(dp946
g4
I10
sg5
I1
sg6
g7
sg8
g9
sg10
I7
sg11
F0.07
sg12
I200
sg13
I1000
sa(dp947
g4
I10
sg5
I1
sg6
g7
sg8
g9
sg10
I9
sg11
F0.07
sg12
I200
sg13
I1000
sa(dp948
g4
I10
sg5
I1
sg6
g7
sg8
g9
sg10
I1
sg11
F0.08
sg12
I200
sg13
I1000
sa(dp949
g4
I10
sg5
I1
sg6
g7
sg8
g9
sg10
I3
sg11
F0.08
sg12
I200
sg13
I1000
sa(dp950
g4
I10
sg5
I1
sg6
g7
sg8
g9
sg10
I5
sg11
F0.08
sg12
I200
sg13
I1000
sa(dp951
g4
I10
sg5
I1
sg6
g7
sg8
g9
sg10
I7
sg11
F0.08
sg12
I200
sg13
I1000
sa(dp952
g4
I10
sg5
I1
sg6
g7
sg8
g9
sg10
I9
sg11
F0.08
sg12
I200
sg13
I1000
sa(dp953
g4
I10
sg5
I1
sg6
g7
sg8
g9
sg10
I1
sg11
F0.09
sg12
I200
sg13
I1000
sa(dp954
g4
I10
sg5
I1
sg6
g7
sg8
g9
sg10
I3
sg11
F0.09
sg12
I200
sg13
I1000
sa(dp955
g4
I10
sg5
I1
sg6
g7
sg8
g9
sg10
I5
sg11
F0.09
sg12
I200
sg13
I1000
sa(dp956
g4
I10
sg5
I1
sg6
g7
sg8
g9
sg10
I7
sg11
F0.09
sg12
I200
sg13
I1000
sa(dp957
g4
I10
sg5
I1
sg6
g7
sg8
g9
sg10
I9
sg11
F0.09
sg12
I200
sg13
I1000
sa(dp958
g4
I10
sg5
I1
sg6
g7
sg8
g9
sg10
I1
sg11
F0.1
sg12
I200
sg13
I1000
sa(dp959
g4
I10
sg5
I1
sg6
g7
sg8
g9
sg10
I3
sg11
F0.1
sg12
I200
sg13
I1000
sa(dp960
g4
I10
sg5
I1
sg6
g7
sg8
g9
sg10
I5
sg11
F0.1
sg12
I200
sg13
I1000
sa(dp961
g4
I10
sg5
I1
sg6
g7
sg8
g9
sg10
I7
sg11
F0.1
sg12
I200
sg13
I1000
sa(dp962
g4
I10
sg5
I1
sg6
g7
sg8
g9
sg10
I9
sg11
F0.1
sg12
I200
sg13
I1000
sa(dp963
g4
I10
sg5
I1
sg6
g7
sg8
g9
sg10
I1
sg11
F0.11
sg12
I200
sg13
I1000
sa(dp964
g4
I10
sg5
I1
sg6
g7
sg8
g9
sg10
I3
sg11
F0.11
sg12
I200
sg13
I1000
sa(dp965
g4
I10
sg5
I1
sg6
g7
sg8
g9
sg10
I5
sg11
F0.11
sg12
I200
sg13
I1000
sa(dp966
g4
I10
sg5
I1
sg6
g7
sg8
g9
sg10
I7
sg11
F0.11
sg12
I200
sg13
I1000
sa(dp967
g4
I10
sg5
I1
sg6
g7
sg8
g9
sg10
I9
sg11
F0.11
sg12
I200
sg13
I1000
sa(dp968
g4
I10
sg5
I1
sg6
g7
sg8
g9
sg10
I1
sg11
F0.12
sg12
I200
sg13
I1000
sa(dp969
g4
I10
sg5
I1
sg6
g7
sg8
g9
sg10
I3
sg11
F0.12
sg12
I200
sg13
I1000
sa(dp970
g4
I10
sg5
I1
sg6
g7
sg8
g9
sg10
I5
sg11
F0.12
sg12
I200
sg13
I1000
sa(dp971
g4
I10
sg5
I1
sg6
g7
sg8
g9
sg10
I7
sg11
F0.12
sg12
I200
sg13
I1000
sa(dp972
g4
I10
sg5
I1
sg6
g7
sg8
g9
sg10
I9
sg11
F0.12
sg12
I200
sg13
I1000
sa(dp973
g4
I10
sg5
I1
sg6
g7
sg8
g9
sg10
I1
sg11
F0.13
sg12
I200
sg13
I1000
sa(dp974
g4
I10
sg5
I1
sg6
g7
sg8
g9
sg10
I3
sg11
F0.13
sg12
I200
sg13
I1000
sa(dp975
g4
I10
sg5
I1
sg6
g7
sg8
g9
sg10
I5
sg11
F0.13
sg12
I200
sg13
I1000
sa(dp976
g4
I10
sg5
I1
sg6
g7
sg8
g9
sg10
I7
sg11
F0.13
sg12
I200
sg13
I1000
sa(dp977
g4
I10
sg5
I1
sg6
g7
sg8
g9
sg10
I9
sg11
F0.13
sg12
I200
sg13
I1000
sa(dp978
g4
I10
sg5
I1
sg6
g7
sg8
g9
sg10
I1
sg11
F0.14
sg12
I200
sg13
I1000
sa(dp979
g4
I10
sg5
I1
sg6
g7
sg8
g9
sg10
I3
sg11
F0.14
sg12
I200
sg13
I1000
sa(dp980
g4
I10
sg5
I1
sg6
g7
sg8
g9
sg10
I5
sg11
F0.14
sg12
I200
sg13
I1000
sa(dp981
g4
I10
sg5
I1
sg6
g7
sg8
g9
sg10
I7
sg11
F0.14
sg12
I200
sg13
I1000
sa(dp982
g4
I10
sg5
I1
sg6
g7
sg8
g9
sg10
I9
sg11
F0.14
sg12
I200
sg13
I1000
sa(dp983
g4
I10
sg5
I1
sg6
g7
sg8
g9
sg10
I1
sg11
F0.15
sg12
I200
sg13
I1000
sa(dp984
g4
I10
sg5
I1
sg6
g7
sg8
g9
sg10
I3
sg11
F0.15
sg12
I200
sg13
I1000
sa(dp985
g4
I10
sg5
I1
sg6
g7
sg8
g9
sg10
I5
sg11
F0.15
sg12
I200
sg13
I1000
sa(dp986
g4
I10
sg5
I1
sg6
g7
sg8
g9
sg10
I7
sg11
F0.15
sg12
I200
sg13
I1000
sa(dp987
g4
I10
sg5
I1
sg6
g7
sg8
g9
sg10
I9
sg11
F0.15
sg12
I200
sg13
I1000
sa(dp988
g4
I10
sg5
I1
sg6
g7
sg8
g9
sg10
I1
sg11
F0.16
sg12
I200
sg13
I1000
sa(dp989
g4
I10
sg5
I1
sg6
g7
sg8
g9
sg10
I3
sg11
F0.16
sg12
I200
sg13
I1000
sa(dp990
g4
I10
sg5
I1
sg6
g7
sg8
g9
sg10
I5
sg11
F0.16
sg12
I200
sg13
I1000
sa(dp991
g4
I10
sg5
I1
sg6
g7
sg8
g9
sg10
I7
sg11
F0.16
sg12
I200
sg13
I1000
sa(dp992
g4
I10
sg5
I1
sg6
g7
sg8
g9
sg10
I9
sg11
F0.16
sg12
I200
sg13
I1000
sa(dp993
g4
I10
sg5
I1
sg6
g7
sg8
g9
sg10
I1
sg11
F0.17
sg12
I200
sg13
I1000
sa(dp994
g4
I10
sg5
I1
sg6
g7
sg8
g9
sg10
I3
sg11
F0.17
sg12
I200
sg13
I1000
sa(dp995
g4
I10
sg5
I1
sg6
g7
sg8
g9
sg10
I5
sg11
F0.17
sg12
I200
sg13
I1000
sa(dp996
g4
I10
sg5
I1
sg6
g7
sg8
g9
sg10
I7
sg11
F0.17
sg12
I200
sg13
I1000
sa(dp997
g4
I10
sg5
I1
sg6
g7
sg8
g9
sg10
I9
sg11
F0.17
sg12
I200
sg13
I1000
sa(dp998
g4
I10
sg5
I1
sg6
g7
sg8
g9
sg10
I1
sg11
F0.18
sg12
I200
sg13
I1000
sa(dp999
g4
I10
sg5
I1
sg6
g7
sg8
g9
sg10
I3
sg11
F0.18
sg12
I200
sg13
I1000
sa(dp1000
g4
I10
sg5
I1
sg6
g7
sg8
g9
sg10
I5
sg11
F0.18
sg12
I200
sg13
I1000
sa(dp1001
g4
I10
sg5
I1
sg6
g7
sg8
g9
sg10
I7
sg11
F0.18
sg12
I200
sg13
I1000
sa(dp1002
g4
I10
sg5
I1
sg6
g7
sg8
g9
sg10
I9
sg11
F0.18
sg12
I200
sg13
I1000
sa(dp1003
g4
I10
sg5
I1
sg6
g7
sg8
g9
sg10
I1
sg11
F0.19
sg12
I200
sg13
I1000
sa(dp1004
g4
I10
sg5
I1
sg6
g7
sg8
g9
sg10
I3
sg11
F0.19
sg12
I200
sg13
I1000
sa(dp1005
g4
I10
sg5
I1
sg6
g7
sg8
g9
sg10
I5
sg11
F0.19
sg12
I200
sg13
I1000
sa(dp1006
g4
I10
sg5
I1
sg6
g7
sg8
g9
sg10
I7
sg11
F0.19
sg12
I200
sg13
I1000
sa(dp1007
g4
I10
sg5
I1
sg6
g7
sg8
g9
sg10
I9
sg11
F0.19
sg12
I200
sg13
I1000
sa(dp1008
g4
I10
sg5
I1
sg6
g7
sg8
g9
sg10
I1
sg11
F0.2
sg12
I200
sg13
I1000
sa(dp1009
g4
I10
sg5
I1
sg6
g7
sg8
g9
sg10
I3
sg11
F0.2
sg12
I200
sg13
I1000
sa(dp1010
g4
I10
sg5
I1
sg6
g7
sg8
g9
sg10
I5
sg11
F0.2
sg12
I200
sg13
I1000
sa(dp1011
g4
I10
sg5
I1
sg6
g7
sg8
g9
sg10
I7
sg11
F0.2
sg12
I200
sg13
I1000
sa(dp1012
g4
I10
sg5
I1
sg6
g7
sg8
g9
sg10
I9
sg11
F0.2
sg12
I200
sg13
I1000
saaccopy_reg
_reconstructor
p1013
(cpandas.core.frame
DataFrame
p1014
c__builtin__
object
p1015
Ntp1016
Rp1017
(dp1018
S'_metadata'
p1019
(lp1020
sS'_typ'
p1021
S'dataframe'
p1022
sS'_data'
p1023
g1013
(cpandas.core.internals.managers
BlockManager
p1024
g1015
Ntp1025
Rp1026
((lp1027
cpandas.core.indexes.base
_new_Index
p1028
(cpandas.core.indexes.base
Index
p1029
(dp1030
S'data'
p1031
cnumpy.core.multiarray
_reconstruct
p1032
(cnumpy
ndarray
p1033
(I0
tp1034
S'b'
p1035
tp1036
Rp1037
(I1
(I5
tp1038
cnumpy
dtype
p1039
(S'O8'
p1040
I0
I1
tp1041
Rp1042
(I3
S'|'
p1043
NNNI-1
I-1
I63
tp1044
bI00
(lp1045
S'Single_cells...Intensity.Spot.Fluorescein..FITC..Mean_mean'
p1046
aS'Single_cells...Intensity.Spot.DAPI.Mean_mean'
p1047
aS'Single_cells...FITC_dead.Profile.2.2_mean'
p1048
aS'Single_cells...Bacteria_CSA.Profile.2.2_mean'
p1049
aS'Single_cells...FITC_dead.Radial.Relative.Deviation_mean'
p1050
atp1051
bsS'name'
p1052
Nstp1053
Rp1054
ag1028
(cpandas.core.indexes.numeric
Int64Index
p1055
(dp1056
g1031
g1032
(g1033
(I0
tp1057
g1035
tp1058
Rp1059
(I1
(I116
tp1060
g1039
(S'i8'
p1061
I0
I1
tp1062
Rp1063
(I3
S'<'
p1064
NNNI-1
I-1
I0
tp1065
bI00
S'\x00\x00\x00\x00\x00\x00\x00\x00\x01\x00\x00\x00\x00\x00\x00\x00\x02\x00\x00\x00\x00\x00\x00\x00\x03\x00\x00\x00\x00\x00\x00\x00\x08\x00\x00\x00\x00\x00\x00\x00\t\x00\x00\x00\x00\x00\x00\x00\n\x00\x00\x00\x00\x00\x00\x00\x0b\x00\x00\x00\x00\x00\x00\x00\x0c\x00\x00\x00\x00\x00\x00\x00\r\x00\x00\x00\x00\x00\x00\x00\x0e\x00\x00\x00\x00\x00\x00\x00\x0f\x00\x00\x00\x00\x00\x00\x00\x10\x00\x00\x00\x00\x00\x00\x00\x11\x00\x00\x00\x00\x00\x00\x00\x12\x00\x00\x00\x00\x00\x00\x00\x13\x00\x00\x00\x00\x00\x00\x00\x14\x00\x00\x00\x00\x00\x00\x00\x15\x00\x00\x00\x00\x00\x00\x00\x16\x00\x00\x00\x00\x00\x00\x00\x17\x00\x00\x00\x00\x00\x00\x00\x18\x00\x00\x00\x00\x00\x00\x00\x19\x00\x00\x00\x00\x00\x00\x00\x1a\x00\x00\x00\x00\x00\x00\x00\x1b\x00\x00\x00\x00\x00\x00\x00\x1c\x00\x00\x00\x00\x00\x00\x00\x1d\x00\x00\x00\x00\x00\x00\x00\x1e\x00\x00\x00\x00\x00\x00\x00\x1f\x00\x00\x00\x00\x00\x00\x00 \x00\x00\x00\x00\x00\x00\x00!\x00\x00\x00\x00\x00\x00\x00"\x00\x00\x00\x00\x00\x00\x00#\x00\x00\x00\x00\x00\x00\x00$\x00\x00\x00\x00\x00\x00\x00%\x00\x00\x00\x00\x00\x00\x00&\x00\x00\x00\x00\x00\x00\x00\'\x00\x00\x00\x00\x00\x00\x00(\x00\x00\x00\x00\x00\x00\x00)\x00\x00\x00\x00\x00\x00\x00*\x00\x00\x00\x00\x00\x00\x00+\x00\x00\x00\x00\x00\x00\x00,\x00\x00\x00\x00\x00\x00\x00-\x00\x00\x00\x00\x00\x00\x00.\x00\x00\x00\x00\x00\x00\x00/\x00\x00\x00\x00\x00\x00\x00H\x00\x00\x00\x00\x00\x00\x00I\x00\x00\x00\x00\x00\x00\x00J\x00\x00\x00\x00\x00\x00\x00K\x00\x00\x00\x00\x00\x00\x00L\x00\x00\x00\x00\x00\x00\x00M\x00\x00\x00\x00\x00\x00\x00N\x00\x00\x00\x00\x00\x00\x00O\x00\x00\x00\x00\x00\x00\x00P\x00\x00\x00\x00\x00\x00\x00Q\x00\x00\x00\x00\x00\x00\x00R\x00\x00\x00\x00\x00\x00\x00S\x00\x00\x00\x00\x00\x00\x00T\x00\x00\x00\x00\x00\x00\x00U\x00\x00\x00\x00\x00\x00\x00V\x00\x00\x00\x00\x00\x00\x00W\x00\x00\x00\x00\x00\x00\x00X\x00\x00\x00\x00\x00\x00\x00Y\x00\x00\x00\x00\x00\x00\x00Z\x00\x00\x00\x00\x00\x00\x00[\x00\x00\x00\x00\x00\x00\x00\\\x00\x00\x00\x00\x00\x00\x00]\x00\x00\x00\x00\x00\x00\x00^\x00\x00\x00\x00\x00\x00\x00_\x00\x00\x00\x00\x00\x00\x00d\x00\x00\x00\x00\x00\x00\x00e\x00\x00\x00\x00\x00\x00\x00f\x00\x00\x00\x00\x00\x00\x00g\x00\x00\x00\x00\x00\x00\x00l\x00\x00\x00\x00\x00\x00\x00m\x00\x00\x00\x00\x00\x00\x00n\x00\x00\x00\x00\x00\x00\x00o\x00\x00\x00\x00\x00\x00\x00t\x00\x00\x00\x00\x00\x00\x00u\x00\x00\x00\x00\x00\x00\x00v\x00\x00\x00\x00\x00\x00\x00w\x00\x00\x00\x00\x00\x00\x00\x90\x00\x00\x00\x00\x00\x00\x00\x91\x00\x00\x00\x00\x00\x00\x00\x92\x00\x00\x00\x00\x00\x00\x00\x93\x00\x00\x00\x00\x00\x00\x00\x94\x00\x00\x00\x00\x00\x00\x00\x95\x00\x00\x00\x00\x00\x00\x00\x96\x00\x00\x00\x00\x00\x00\x00\x97\x00\x00\x00\x00\x00\x00\x00\x98\x00\x00\x00\x00\x00\x00\x00\x99\x00\x00\x00\x00\x00\x00\x00\x9a\x00\x00\x00\x00\x00\x00\x00\x9b\x00\x00\x00\x00\x00\x00\x00\x9c\x00\x00\x00\x00\x00\x00\x00\x9d\x00\x00\x00\x00\x00\x00\x00\x9e\x00\x00\x00\x00\x00\x00\x00\x9f\x00\x00\x00\x00\x00\x00\x00\xa0\x00\x00\x00\x00\x00\x00\x00\xa1\x00\x00\x00\x00\x00\x00\x00\xa2\x00\x00\x00\x00\x00\x00\x00\xa3\x00\x00\x00\x00\x00\x00\x00\xa4\x00\x00\x00\x00\x00\x00\x00\xa5\x00\x00\x00\x00\x00\x00\x00\xa6\x00\x00\x00\x00\x00\x00\x00\xa7\x00\x00\x00\x00\x00\x00\x00\xc4\x00\x00\x00\x00\x00\x00\x00\xc5\x00\x00\x00\x00\x00\x00\x00\xc6\x00\x00\x00\x00\x00\x00\x00\xc7\x00\x00\x00\x00\x00\x00\x00\xcc\x00\x00\x00\x00\x00\x00\x00\xcd\x00\x00\x00\x00\x00\x00\x00\xce\x00\x00\x00\x00\x00\x00\x00\xcf\x00\x00\x00\x00\x00\x00\x00\xd4\x00\x00\x00\x00\x00\x00\x00\xd5\x00\x00\x00\x00\x00\x00\x00\xd6\x00\x00\x00\x00\x00\x00\x00\xd7\x00\x00\x00\x00\x00\x00\x00'
p1066
tp1067
bsg1052
Nstp1068
Rp1069
a(lp1070
g1032
(g1033
(I0
tp1071
g1035
tp1072
Rp1073
(I1
(I5
I116
tp1074
g1039
(S'f8'
p1075
I0
I1
tp1076
Rp1077
(I3
S'<'
p1078
NNNI-1
I-1
I0
tp1079
bI00
S'SS\x8f\xad\x88\xdc\xdf\xbf}_\x90 U\xab\xdf\xbf\xdf\x01\xb3\xf1-g\xdf\xbf1\x8fw\x99\xa3u\xdf\xbf\x80\x1a\x9a\xe8q\xcc\xda\xbfY]\xa9\x15\xc4\x88\xdb\xbf\xca\x1cB\x14@\x87\xd8\xbfp\x7f\xb2\xb6X@\xdb\xbf\x80\x1a\x9a\xe8q\xcc\xda\xbfY]\xa9\x15\xc4\x88\xdb\xbf\xca\x1cB\x14@\x87\xd8\xbfp\x7f\xb2\xb6X@\xdb\xbf\x90\xfa\r\xbb\x83K\xd4\xbf\x7f+\xa7:!v\xcf\xbf\x15\xf1\xce\xf7\xde>\xd7\xbf\x18\xfe\x1a\xd5\xa2N\xd5\xbf\xb0\x8e5\xa9\xef\x80\xb2\xbfK\x84\xb3j\x12\xdf\xc4\xbff\x81[G\x87\xea\xca\xbf\xa9\xbf\x0e?\xf0\xf8\xce\xbf\xa7f\xff\xea\xf9f\xd9\xbf\xd8^\x9b\x88\x0e\x01\xd8\xbf\xeb\xd9\xcec\xbb<\xdb\xbf\xf8\xd5\xb6\xf4p\\\xd9\xbf\x89\x91\x93@\x11\x90\xe6?n\xf7\x07\xff\x97\x88\xef?\xde\xeb\x050\xb9\x95\x80\xbf\xd5\xbc\x86\xa4D\xc0\xd2\xbfX\xd6\xa3\x94qc\xdd\xbf\xfb\x17\xaf{\x12M\xde\xbf2\xe3L\xf2i\x93\xdc\xbf\x96\x04\xc6\xacR/\xde\xbf\x1e\\\x7f\xe4\x8f\xf1\x01@HF\xc0\x8cMV\x02@\xbf\xd4\xaa\x01\xbdD\xf2?p\xd4\xf6x\xa7w\xf1?\x7f4ZD\x1c\xa1\xdf\xbf\x02\xc0+4k-\xde\xbf\x07;\xc4\xa9V\xa4\xdf\xbf\xd1Yp!\xf6U\xe0\xbf\xe3w\xb0-WO\xf1?n\x87U\x80\x0b\xab\xf5?-Z\x06\x18>d\xf5?{\xa9\x16!\xb4\xf4\xf5?\xbf\xea\xd6%\xdbp\xd6\xbfX5\x80.\x8c\x81\xd5\xbfX\x1d\x01T\xf9\xbf\xde\xbf1\x04`x\x91u\xdf\xbf|u\xcc\x0e\xbe\x1e\xda\xbfF)\xc5\xc7g\\\xdb\xbf#\xd5\xcd\x17 \x94\xdc\xbf.\xd5`\x18,\x90\xdd\xbf\xf9\xd3\x05m\x7f\x05\xdf\xbf\xe1\xb5\x17\xcd(1\xde\xbf\x96\x90\xfe:Y\xa1\xdc\xbf\x1d\x0cM5\xbe\xee\xdd\xbf\xcb\xd1\x14\xc2\xaa\x94\xdb\xbf`mn-\x88\xf6\xdc\xbf\xe8\xa5\x86\xear\x15\xde\xbf\xe0*~X\x071\xdd\xbf8\xc9\x1b7I}\xda\xbfJ\xf3\xeaI\xe4\xd7\xdc\xbf3\x08P[+\xff\xd7\xbfx>\xbb\xa5h\x16\xd6\xbf\x99\xad3\xe4\x95:\xdf\xbf\x9aqU\xff\x18\xc0\xde\xbf|o\xbd\xabx\xeb\xdd\xbf?\r\x1bQ\x8e\x9a\xde\xbf\x0e.\xf7\x80\xf3\xa8\xcc\xbf\xddxV\tW\x0c\xce\xbfp\xd0\xb1\xc9\xad\xa8\xc9\xbfS\xedD3x.\xcc\xbf\x1c=\xc7\xa8\x1c\xdd\xd3\xbf\xc6\x07M\x0f\x82\x0f\xd4\xbfD\x9e\x9a]\xf4\x8d\xdc\xbf\xd8\x80`\xb6\x12|\xdd\xbf\x1bY1\xd3\xb3y\xd9?\x15P9\x02\xc0&\xdf?\x8b\xc5\x91>\x89q\xda?Pm\x82\xfaIf\xda?\xaf\x90WZ\xefi\xf3?\xe8\x91\x19\xe9\xcd\xad\xf4?\xf0\xe52y\xf2l\xda?\xb21\xa0\xafp\x03\xec?\xd7\x86\x13\xbf\x82C\xf6?\x94\xa0o=\x96\xd5\xf6??\x17\xa7\x86\x03\xb2\xf1?\xe1\x17\x19\xea\xda&\xea?{7\xa9\x04\x90\xce\x0f@xN\x06\x14\r\xfd\x10@95\xf0\xd5\x93`\x0b@\xe8\xe2\xc6\x17z}\x06@\xaa\xecLTI\xb9\xda\xbf\xba\x16*\xb1\x96\xde\xd6\xbfl\x90\x18\xca\x90\xd1\xdb\xbf\xfc\xb2yh\x9dU\xdd\xbf\xaf\x1f\x8fW|\x80\x0e@\x8e\xc2L\x97\xb4\x84\x0c@4\xdf\xf1D\xfe\x03\x12@\xa3\x9fua\x02\x96\x13@\x07\nYd\xd0q\xde\xbf\xf9w)\x1c\xaf1\xdf\xbf?3|c\x87\xec\xde\xbf"\xdd%y\xf4}\xdf\xbf\xba\x1a5\x158\x80\xd8\xbfI\xee\xe2\xb7\x04G\xdb\xbf\xf9)\x05\xb4\xc0>\xdb\xbf\x9e9\r\x8f\xfb\xb3\xdc\xbfJZo\t\xe6K\xe0\xbf\x8awz,\xe7P\xdf\xbfl\xb6\xa5\xaf\x13\x9d\xde\xbf\x80\x90\xf4W\xb0L\xdf\xbf&1\xc4\x1a\x19\x05\xdf\xbfq\x17\xd8\x98\x92U\xe0\xbf\x129\x10\xd1\xa5\xfe\xdd\xbf/\xac\xd4\xfb\x0b\xfc\xde\xbf\xc2\x90\x87\xfc_\xa4\xe2?\xbd\xf7\x81c\xda\xfd\xe3?\xca1zePl\xe2?\x862\x1f\x13[t\xe0?]\xf0KM\x91{\xd2?\x9e\xcf\x10\xb3X\xf9\xe6?\xaf\x1f\xc3\xc6\xd8\xeb\xdf?\x12?\xb4\xaf\xe5\x1f\xbf?]\xf0KM\x91{\xd2?\x9e\xcf\x10\xb3X\xf9\xe6?\xaf\x1f\xc3\xc6\xd8\xeb\xdf?\x12?\xb4\xaf\xe5\x1f\xbf?m\xc6\xe4M\x97\xde\xf3?E\xc9\xe4\xce\r$\xfb?\xd7ttJGk\xf9?\xea\xba\x83\xea\xd4\xe3\xfc?\xed\x85p\x01\xd5O\xf8?3\r\x01KG\xa6\xf4?\x98\xa4\xe1Y\xff,\xf9?\x80\x85\xbc\xe3\x08\xe4\xf4?\xcb\x06\x91\x17$\xcc\xc1\xbf\xb0c.\xd99\x0c\xd7\xbf(\xe4\xdb\x88\x9b\xc9\xde\xbfF\x12$<f\x12\xcb\xbfH2\xdbl\x0c\xc9\xdf?;\x1d\xc394\x02\xe3?\xca&=\xf2g%\xe2?\xb8F\x9e\xe5H\x04\xd8?\xc0\x7f**@b\xe2\xbf&\x99\xd2\xb0\xc5\x91\xe6\xbf\xf7S,\x0f\x9a\xfe\xe3\xbf\x98W,\xfb\x08\xc9\xe8\xbf\x04\xe6*\xd8q|\x00@Xc\xc3\x04\xf1Q\xfc?\xb7z\xbaY\x11\xa4\xfd?\xf0H\xc7\xc1\x01\x82\x00@\xc9\xdd^\xb4\x00\xc2\xea\xbft.\xbctA\x9c\xe8\xbfpJs\x08\xa0 \xea\xbf7hj\xdas\x96\xef\xbf\x0b\xc9o\x1e\xb1\x8f\xf5?n\xaa\xb5,-\x8e\xf7?p\xb6\x9c\xc4V\t\xfc?\xdf]\xb2_\x7f@\x01@\xc6\xfbI\'#\xe6\xd8\xbf\r/\t6\xd6\xcf\xe0\xbf\xfa\x91\x99u\xa1\xaf\xe8\xbf\x0f\xd0\xf2f\xee\x84\xec\xbf\xb1}\x12\xe1}\x0b\xed\xbf\xc7\xb6\x81IM1\xf0\xbf3K\x83\xb1r\xc9\xee\xbf\x0e\x07\xd0\'\x97s\xf1\xbf\xa35\xb7\xa4.\xee\xe6\xbfb-\x1fEC\xf7\xdd\xbf\xbc&\xeb>d\x03\xd0\xbf`\x13\x92\xb8\xde&\xd7\xbfE\x9e/82\xd2\xe5\xbf\x048\x9e\xad\xb1\xde\xe8\xbf\x0e\xf0\xcd\xa5\xff\xed\xeb\xbft\x11\xb3\xc1+\x88\xea\xbf[\x9f)\xe5/\xab\xe8\xbf\x04\x16\xe7\x84\xb4\xe8\xec\xbfv\x1fy\xd4wU\xe7\xbf\xd8\xbcc\xf53j\xec\xbf\x8a\xcd\xc7`4\x91\xe5\xbf/\x13\xf8DX\x04\xe7\xbf\xac6\x0c\x13nr\xe0\xbfc #\xe3\x07\x8e\xe1\xbfxu\xfc_;\xdb\xbf\xbf;\xce\xa8\xfe\x03q\xa2\xbf\xe6\xcdI\xb3\x8e\xbf\xce\xbfA\xc8\x97\xd9\x94u\xc1\xbf\xdfX\xb2\'\x93r\xe1\xbf\x8d\xac\xaa0\xb2j\xe0\xbf\xa0\x99\x97\xef\t\x7f\xe7\xbf\xa8y\xc7\xfaBB\xeb\xbf\xbe\x9eu\x86\xf7\xad\xda\xbf\x9f\x8cNm\\B\xd8\xbf6`\xb8Q\xf3\x8f\xd3\xbf\xee/\x04\xcd\x1e\x8b\xd8\xbf\x1c7p\xc1]u\x04@\xd9\x07f\xd4\xebu\x02@;\xd07mv\x01\x02@\xf3\x88\x0e9\x91;\x02@M\xf9I\xeb\x9e+\xfc?\xdd\x9e\xe0\x8d\xf2\xac\xfa?/\xa7\xf7\x99\xfa1\xf6?L\x04F\xc6\x94\x8d\xf7?\x0bx\xde\r\xbe\x86\x03@\xc8\xbf4\x95q\xa7\x02@k\xed3xA\x01\x02@\xa9Z\xd0\xbd\x00\xb1\xfe?f\xael\x1a:\x17\xdd\xbf\xa4A\x97F%\x1c\xd9\xbfE\xd70\xe9M\xeb\xde\xbfSV\xa0\x07j\x86\xe2\xbf\x8ci\xe5!\xd6\x01\xfa?\xfc\x18\xdf\xa8\x0c1\xf4?5\x8c\xa4\xa0`6\xf6?xd\x92\xc3"\xaa\xfa?\xba\x7f\xd8\x1d\xa87\xe5\xbfq_8\xfaP\x0b\xe7\xbf\xce?\xde\xf2&\\\xe7\xbf\x85T\xcd\xbew"\xe4\xbf\x98\x0c\x83\xbb\xa0/\xdf\xbf\x9cG\xf6\x07\xad\x80\xe6\xbf\x917:%\x9e\xb6\xd4\xbf\xb5Y\n\xa0*m\xe3\xbf\xdb9(\xa8\x97]\xea\xbf\xe2\xacL+t\x1b\xe6\xbfgm\t\xa1Q\xf4\xea\xbf\xab\xd9\xaf\xfa\x10\x99\xf0\xbfNgA\xb1^\xee\xee\xbf\xb9-S\t\xf5]\xf1\xbf\xa3\xc52y\xb3\xed\xe6\xbf V\xd7\xdf\xfeq\xeb\xbf\xbavNH\r\xe6\xe0\xbf\xd6U\'\x83\xc8@\xda\xbf\xc0%v\x7fA\xd8\xd1\xbf\xa2.M^N \xd4\xbfrh\x90\x95+ \xd3\xbfl\xd27\x87\xcbn\xb0\xbf\xf4[w\x18\xc7\xae\xba?F\xb7\x05\x9b\x0b\x83\xc5\xbfrh\x90\x95+ \xd3\xbfl\xd27\x87\xcbn\xb0\xbf\xf4[w\x18\xc7\xae\xba?F\xb7\x05\x9b\x0b\x83\xc5\xbf\xba\xbe\x11F\x81\xfd\xe2?\xb3nHb\x98%\xf0?\xf2\x14u\xb5U\xef\xd5?\x97\xb6\xa9\xfa\xc6\xd3\xe5?\xcc\xbf\x00J\xf0\x1d\xfe?,Z\x9e\xd7A\xb8\xf4?P\xf7\xea\x00\x0cs\xf5?\xd8\x8f\xe7\xfex#\xf0?\x88\xbdH\x13\xb8\x8c\xca?2\x8a\xbfv\xc8B\xae?\xce\xcb\xeb\xf42\x18\xbe\xbfdC\xaf\xb4\xee\x88\xa0\xbfIDi\x88|\xbc\xd1?\xeb\x0e\xca4N.\xbb?\x8ew\x9e\xf4\x01\xb4\xc4\xbf(h7\xed\xf9;\xe5\xbf\xb00/5\xee\xc9\xdf\xbf:\x11\xe1M|t\xe4\xbf\xb5\x92e\xe8{#\xe3\xbf\x07\x94\x02\x15\x13\x96\xe8\xbf\xa6\xb7\nI\x80\xf7\x00@:\xdc\xb6(-\xd5\xfd?`3`\x9ddE\xf8?\x85_\xf2\xea8D\xf1?\xe2\xd2\x9b\x18D\xf7\xef\xbf\xc5\xf1l\x00\x92k\xec\xbfhS\xed]\xd0\xaf\xec\xbf\xa1\xe7\xaaP]\xd3\xef\xbf\xd7\xdb\xe3i\x93\xd8\xef?4\x92\xfe\xd9\x91\xb1\xdb?\x8bA\x1d\xb2\x12\x17\xf0?\x06\xceZlO\x1c\xe6?\xc6\xddY)\xad\x00\xa9\xbf\x19:\xf9\x06\xcdP\xc3\xbfi8\x9c\xa7<\x96\xe4\xbf\xc0^\xb9\x17\x19\x02\xe7\xbf\xcb\xd8~&\xaf;\xa5\xbf\xe2\xc0\xeb\xf1\x82&\xc8\xbfG\x86\x8cy\x90!\xe4\xbf\x96\xff5cU,\xe7\xbfg7bc\xb0B\xe6\xbf3\xa4\xc3\x937\x14\xe0\xbfv[\xca\xeb\xbd\xf5\xe0\xbf0u\xcc\xa0\x9eG\xe2\xbfX\xb6f8g\xab\xdc\xbf\xe4!^\xacz\x8f\xdd\xbf\xaf\x85\xa1\xf1h\xb8\xe4\xbf\x9e\xc1\x19\xb9\xadQ\xe2\xbfb\xd3\t\xe5\x06\xfd\xdd\xbfv\xb5\xc7\x80\xd9\xcb\xe3\xbf\xc4\xb8\x0e\x1e\xc2\x1a\x93?\t\xa4\x91\xa3SH\xb6\xbf*\x80\xb9\xd0\x84\x11\xeb\xbf*\xeb\x17\x8d\xbe\xbd\xeb\xbf=\x8aY\xe2:\xa1\xea\xbf\xbdt8}\xa6~\xeb\xbf:\x9e\t\x8b\xaf|\xdb\xbfp\x1e}\xb5\x97G\xdb\xbfnE\xees\x9c*\xd4\xbfF \xf9\x81\xb3\x0f\xd4\xbfu\xa2\x86\x89\xeb\xbe\xde\xbf\x13n\xaf\xf6\xd1{\xd4\xbf5\x9c\xa61[/\xe4\xbfb\x13\x14\x9c\x88$\xe4\xbf\x1c\xd0\xc1K\x88!\xfc?\x82\xacS\xba/%\xfc?@\x17e/>\xea\xf5?(l\xc1\x90\xa3\xcd\xf4?\xaa\x82\x1fF)\xc6\xf1?\xcaEyi\xcfd\xf5?\xaft\xc5\xf7\x01\xb0\xe4?f9K\x0e\x06\xf0\xe1?\x12\x1dS\xdf\xed\x81\xfb?\x89\x80\xaek\x87\x8a\xfe?\x86\xfev\x0e\xc7\xc3\xf8?\x9e\xea\x02C\x12:\xf7?\x18\xe1\x13DS\xa2\xfc?\xbb\x0bc\xb9\x93\xf7\x01@\xa1\x06\xbe\xfc\xdep\t@A\xcd\x8c\x9c\t\xd3\x01@\xba\x9f\xd6;\xbb-\xe0\xbf\x8cR>\xd1\xf7\n\xd7\xbf%\x1f\x8ev\x0e+\xd8\xbf\xa8\x92\xbb\xe1\x87\x13\xe2\xbf\x1cb2\xf9`$\x10@5\xad\xf15P\xd0\x10@\x8a\xfb\x02\x9cK+\x13@\x87"F\x826\xec\x12@\xad\xb3\x04\xfd>\xc0\xe8\xbf\xea0f\xa5\xc1-\xe9\xbf\xff"\xff\x9e2(\xe9\xbf(\x02\x9c\xddx\xae\xe7\xbfpk\xa2\x80\x02\xee\xd3\xbf\xbb;_\xc0\xd6\x04\xe0\xbf\xafK\xd6\xf3\xd0\xc3\xda\xbf?)R\xa9\'M\xe3\xbf\xb4eL\xb9\xcf\xef\xea\xbf\xf4\xa9\xfe\xfd\x05\xf9\xe5\xbf\x8e\x83W,&J\xe8\xbf\xd5\xaf\x0f\x16\x19\x86\xeb\xbf\xe8\x0e\x9d\xe6\xe8B\xec\xbfDe}9\xd8=\xef\xbf\xb0R\x16\x8d=3\xea\xbfG\x17X\x84\x17\xce\xec\xbf\xbe\x8b\x13H\xff.\xd2\xbf\xfe\xff\x16\x00\xeeq\xe3\xbf\x91\x0b\x88:\rn\x80\xbfT\xb4X\xa6\xfa\x16\xcb?2\xdd\xf4q\x1cu\xcd?\xa2p\xbc4\x8dz\xe1\xbf\x96bP\xb9\x1aR\xa5\xbfi\xee\xaa\xe0\x04\xdc\xdf?2\xdd\xf4q\x1cu\xcd?\xa2p\xbc4\x8dz\xe1\xbf\x96bP\xb9\x1aR\xa5\xbfi\xee\xaa\xe0\x04\xdc\xdf?\xe2\xc6\xdf\x82\x15\x97\xe3\xbf\xc9-\xe5\x90\xb7\x94\xf4\xbf\x03\xe0\x9a\xf3\xe2\xa3\xef\xbfH|*\x1c\x86\xee\xf4\xbf\xac\x02nE=i\xf5\xbfQ\x07-\xe3\xb2\xd3\xeb\xbfEo\xfc\xcbU\x9d\xf6\xbf\x8a\x9d\xcc\xbc\x04\xc7\xed\xbfw\xc5\xa6g|\xa8\xed?\x1d5\x9eo\xe2m\xf7?\xc3juZ\xb4\xf9\xf8?FY)\xa4\xf5r\xf0?\xb9\x11\x80\xa1\x9f(\xea\xbf\xf03NC\x14\xe1\xe3\xbf\xf7+/\xba%\xb8\xe1\xbf:[ \xb2\xfc\x80\xc7\xbf\x97}\xb6\x8el\x9a\xe6?\xc6\xfb\x86\xf2\xb9\x96\xf3?\x1d\x98\x88*-\xf1\xee?tg\xd3%\x01\x06\xf7?\xf8\x07\x0f\x104\xd9\xf5\xbfA\xfa\xfc\xecZ\x16\xf4\xbf\x85\x04\xc7\x16s\x04\xfd\xbfnn\xfc%\x0e\xba\x00\xc0\x01\xa8:\x89\x1e\xb5\xe6?\xa0\x02\xa3\r\xcf\x9d\xd2?q\xca\\6.\x00\xe3?\xe3\xeb\xd7\x17\xd7Q\xf1?\x17\x19Y \xe6\xd5\xf9\xbf\x94>\xdf\x9e\xe4b\xfe\xbf\xca\xdb\x1c\x98\x02 \x00\xc0\x9f\xfa\xc5\xc8\xf3C\x01\xc0c\x94\x8a\x0ezt\xd5\xbf/\x91\xfa?\x04\x93\xca?G\x80H\xeb\x94q\xca\xbf\x86j\xaa\x96\x8f\xe7\xdc?\xf1\\\xbb1yC\xf0?P}OOZ\xef\xf4?\x15\x1a0u\xcf\xda\xee?W"Rq0\x0f\xf7?\xf2$\xf7\x1e\xdc\xb4\xe5?\xe2\xe5Z\x00\xfc\xf6\xcd\xbf@qI\x10\xa0m\xe1\xbf&\xfb\x13\x96\xf9\xb2\xaf?\x04\x00-JV4\xd9?\x85\xebb\xfc;\xc8\xe9?\xa1\xe76\xb1\x0e\\\xe8?0.\x1e\xd0k\xfd\xda?\xc7%w\xb4[\xf8\xbc?\x8d\xbd&\x8c\xd1\xaa\xe4?/\xce^~\x93&\xd6?\x1f8\xd8]\x96y\xe7?\xb1G\x8f\\\xe45\xe0?\t\xff\x98r\xf7\xf2\xd4?|\x83\x97\xfa\xb4\xc5f?\xc3Oo\x04\x93\xb9\xb6?\xea\xf2|\x18\xd6s\xd7?\xb3"\xc6\x8b\xb5\xfb\xc6?s\xcf|?|\x8c\xe1?\xbdz\x1dh\x80\xd8\xd6?W]\xf6v\xb5*\xe7?b\xa8\xc5\xa0\xdc\xa2\xd3?6\' &\x8c\x06\xe7?e\xdb\x82\xb7O\x91\xf0?\xba\x1c\x8f/\xba\xe5\xc9\xbf\xcfSOp\xe0X\xae?\xd3\x90\xbf\x8a\x0c\x08\x8c?-\xe6\x1f\x9bCR\xd6?\xf4\xceME\xdc\x9a\x00\xc0%\xac \xa6^\xe8\xfd\xbfO\xcb\x11\xaa\xb0\x84\x03\xc0\x1c\xb5I\x1e\xe1\xc8\x02\xc0|\xebN\xce\xd2|\xec\xbfM\x0f\xf6\x9d4@\xea\xbf\xf6\ni\xb9\xa0\xa0\xe1\xbf\x1d8`g\xd0\x9a\xe2\xbfX\xb4\x02J\xdf\xe0\xf3\xbfy\xb3\x9a{\xbb\xc0\xef\xbfd\xfa\xe8\xd2\xb9M\xe5\xbf\xccP#P\xa4\xa4\xf4\xbf\x7f\x02\x85\x16\xean\xd0\xbf\xf9\x80\xae\xc0\x0c\x9a\xe4\xbfC\x9b\xed\x8b\x10\x88\xe6\xbf\t5|\xdb\x10\x12\xd0\xbfLq\xfa\x11y\x9d\xa7\xbf\x82\x19\xe0x\x81V\xd4\xbf\xe7\xaf\xae\xc7$T\xd0\xbf\xf6\x9e@o\xcc\xee\xcc\xbf\x142\xc0L\x14p\xe6\xbf\x91\xc9\xa5\xa8\x9eE\xcc\xbf\x8f\xacag\xff\xdf\xd4?"\x83\x89\x99\xf3\xdc\xa7?\x8dm\xe6\xa0\x8b-\xf2?%\xe2\n\xde\xae9\xf7?\xe2\x12JsVy\xee?\xec?Y\x89\x15k\xf7?\xf8\xae\xdf\xd8\xadU\xe6?\x02\xa14\xca\x99\xd5\xb2?\xa3B\xef\x84+\xbb\xe4?\x05\xf9+9z\xbc\xf3?\x9c\xa0\xff \xb6\x1e\xe2?\x8f\xeby\x14@\x8c\xf1?\x8ff\xdc\x0c*j\xd9?\x88\x08t\xee\x1f@\xeb?e\xc6\xbc\xb1\x86}\xe5\xbf\x1e~|\xb7\xa2\xdd\xe3\xbf\xd9\xf5Y\xfe-x\xe7\xbf\x0f`(\xbe"\xea\xe8\xbf\xea\xf1\xf997\x00\xd9\xbf\x9e\xa5;\xac\x89\x12\xd6\xbfsP\xd8V\xcb\xc1\xd5\xbf\x01`\x98\xe8a\xb9\xde\xbf\xea\xf1\xf997\x00\xd9\xbf\x9e\xa5;\xac\x89\x12\xd6\xbfsP\xd8V\xcb\xc1\xd5\xbf\x01`\x98\xe8a\xb9\xde\xbf8\xae2y\x1d~\xec?MB\xa9\xf5\xe1\xd5\xed?iJS\xc1\x08x\xed?\x00\x87\r9\x84#\xec?\x8c\x05\xfa\xab\xb1\x04\xf1?\xcb\xfa[r\x17\xca\xf0?\x93o\x90\x90\xae\xf1\xec?\x87\x8f\xa1?\xdd\xd7\xed?\x16\x96\xefN<\x9b\xe5\xbf\x0cd\xbb\x12\xef\x8b\xe6\xbf\xdbG\xf6\xeb\xf0v\xe6\xbf|u\x8c\xb1\xeaL\xe5\xbf\xc7^\xcbd\x88\x0b\xe1?+\x12\xd2m\xdd\x89\xe8?\x0fJ[J\x98\xe8\xeb?1\x82$\xcf{N\xc4?\t\xedSn<\xbb\xe8\xbf\xae\x01\x80?)\xb9\xe9\xbf\x91\xe62\xf4\x9d\xba\xe8\xbf\xb2\xe0\xea\xedU\xa4\xe8\xbf\xbc\x11\xbf_d\x11\xf9?\xa5\x85<\x1a|\x1a\xfa?n?&\xf9\xe9@\xfb?J\xcaJ#0\xe0\xf5?\xfdN\xae\xad\xf9\x94\xe9\xbfaK\xf3\x93D\x97\xe9\xbf\x85w\xe0\xa6\xfa\xf9\xea\xbf\xff\xf6\xd0\x07\x8b\xc4\xea\xbfc/\xa0\xc7\xe7\x92\xfc?\xa9\xec\x87\x00\xce\xcd\xf4?\xbd\xe3\xf4\xbb~3\xf6?`m\x94\xf9\xfa\xba\xf7?\x95u\xbd\x10/\x8d\xde\xbf\xbevP\x0c\xce\x8a\xde\xbf\x85\xe6s\xd3\xd0\xaf\xe4\xbf\x17\x0b\x1d\x99OI\xe3\xbfv\x04\xc1\x19\xc8\xe0\xda\xbfX\xdcL\xf9\xcc \xe0\xbf\x9a)Kk\xc9#\xe8\xbf\xe6{\x9f\x92\xe2\x00\xe8\xbf\xd1f6\x196E\xe8\xbfJ\xde\xc1H\xcc\xfd\xe7\xbf\xd0s\xd4l\xcc.\xe6\xbf\xe3\x1f\xc4\x91\x1b\x13\xe6\xbf\xba\t\x013h\xf6\xe5\xbf\x9a\xa3\xa0\xb34\xb2\xe3\xbf\xca\xb7\xfe \x8c\xb1\xe4\xbf\xdf\x11\xd7\t\x1f\x9b\xe4\xbf\xcep\xb9Gym\xd7\xbf\xb5\xd3-%f\xae\xd8\xbf\xb0\x83\x87\xb3\xf90\xd2\xbf&\xc3\xea\x10y\x16\xd3\xbfX\xd0\xcd\xc5a\xb9\xce\xbf\x94\xfa\xdb\x06n-\xc0\xbfMh\xd3X\x1fK\xc2?\xaasajR.\x96?\xbdu\x97\x151\xb2\xe1\xbf\x9fj\x1b\xb4\x16\xf8\xe2\xbfu1\xd9\xc9\n\x07\xe6\xbf\xea@\x7f\xd1\x18\xc9\xe4\xbfe\x9c\nk\x10\xb0\xdb\xbf\xa61j\xe2\xc9g\xd8\xbfL\x97\xc6\xc6q\xe4\xe6\xbff\x83\xfa\xf8\xcb\x9b\xe5\xbf\xb2\x1bI\xda\xb7\xcf\xeb?q\xc8\xa0\xcd\xf3\x1f\xf1?K\x93Z\xea\xd2%\xe4?A\xb6A\x1a\xecD\xe8?<9\xd1n\xae\xcc\xfa?\xfdH`\xe8\xb7\xc8\xf7?j\x15\x86+\xf3>\xf4?\x97o\xfc\xf5\x08\xa1\xf0?w\xd5\xd1Ig\xb0\xf4?>,\xbf\xf3\x9eI\xf8?\x93N\x05X \xb4\xec?\xcd\xf2z\xf1\x97J\xed?\xff\'\xdf\xa4\xe6n\xfc?\x89\x08\xd4jS\xd1\t@B\xc9:(-\xfc\x01@\xa1:\t\x8a\x9fX\x02@\x96\'\xbfp\xbck\xd6?\x8dK\xa2\xfd\xf2\xb4\xd7?&zU\xffY;\xda?\xbc\xddu\xf6\x9bB\xd6?\xdf\xaaB\xef\xdc\xa1\x08@\xffQ\xca\xa0\xb7o\x0f@H\x03\xcc\xc4\xd3l\x08@\x16\x83\x01\xbd\xfd1\x02@\x18\x05\xae\xdb\xa6\xb9\xe1\xbfud\x94\xab\xa7\\\xe0\xbf\x83!\xc5\xa6\xff\x05\xe4\xbf\x0c\xac\xe9\x1fX\\\xe4\xbf\'L&\x89\n\xa3\xe6\xbf\xe4:\xb8y\xcd4\xe8\xbf@\xd1\xc3\n\xe0\x16\xe9\xbf\x18\x9cz\x1cb\x1a\xeb\xbf\x8c\x89=\xa1\'\xe0\xe8\xbf.\xa3\x9e8\xd73\xe7\xbfE\x9c\x17\xcd\xae\xaf\xe8\xbf\xd8\x12\x19\xccWw\xea\xbffzU\'\xfe\xef\xe8\xbfIdX\x9e\xd9:\xea\xbf\xc0\xe5\xa6\xbf\x86\xc5\xe8\xbf\x04\x0c\x13}|\x99\xe8\xbf'
p1080
tp1081
ba(lp1082
g1028
(g1029
(dp1083
g1031
g1032
(g1033
(I0
tp1084
g1035
tp1085
Rp1086
(I1
(I5
tp1087
g1042
I00
(lp1088
g1046
ag1047
ag1048
ag1049
ag1050
atp1089
bsg1052
Nstp1090
Rp1091
a(dp1092
S'0.14.1'
p1093
(dp1094
S'axes'
p1095
g1027
sS'blocks'
p1096
(lp1097
(dp1098
S'mgr_locs'
p1099
c__builtin__
slice
p1100
(I0
I5
I1
tp1101
Rp1102
sS'values'
p1103
g1073
sasstp1104
bsbag1013
(g1014
g1015
Ntp1105
Rp1106
(dp1107
g1019
g1020
sg1021
g1022
sg1023
g1013
(g1024
g1015
Ntp1108
Rp1109
((lp1110
g1054
ag1028
(g1055
(dp1111
g1031
g1032
(g1033
(I0
tp1112
g1035
tp1113
Rp1114
(I1
(I52
tp1115
g1063
I00
S'\x04\x00\x00\x00\x00\x00\x00\x00\x05\x00\x00\x00\x00\x00\x00\x00\x06\x00\x00\x00\x00\x00\x00\x00\x07\x00\x00\x00\x00\x00\x00\x004\x00\x00\x00\x00\x00\x00\x005\x00\x00\x00\x00\x00\x00\x006\x00\x00\x00\x00\x00\x00\x007\x00\x00\x00\x00\x00\x00\x00<\x00\x00\x00\x00\x00\x00\x00=\x00\x00\x00\x00\x00\x00\x00>\x00\x00\x00\x00\x00\x00\x00?\x00\x00\x00\x00\x00\x00\x00D\x00\x00\x00\x00\x00\x00\x00E\x00\x00\x00\x00\x00\x00\x00F\x00\x00\x00\x00\x00\x00\x00G\x00\x00\x00\x00\x00\x00\x00`\x00\x00\x00\x00\x00\x00\x00a\x00\x00\x00\x00\x00\x00\x00b\x00\x00\x00\x00\x00\x00\x00c\x00\x00\x00\x00\x00\x00\x00h\x00\x00\x00\x00\x00\x00\x00i\x00\x00\x00\x00\x00\x00\x00j\x00\x00\x00\x00\x00\x00\x00k\x00\x00\x00\x00\x00\x00\x00p\x00\x00\x00\x00\x00\x00\x00q\x00\x00\x00\x00\x00\x00\x00r\x00\x00\x00\x00\x00\x00\x00s\x00\x00\x00\x00\x00\x00\x00x\x00\x00\x00\x00\x00\x00\x00y\x00\x00\x00\x00\x00\x00\x00z\x00\x00\x00\x00\x00\x00\x00{\x00\x00\x00\x00\x00\x00\x00\x80\x00\x00\x00\x00\x00\x00\x00\x81\x00\x00\x00\x00\x00\x00\x00\x82\x00\x00\x00\x00\x00\x00\x00\x83\x00\x00\x00\x00\x00\x00\x00\x88\x00\x00\x00\x00\x00\x00\x00\x89\x00\x00\x00\x00\x00\x00\x00\x8a\x00\x00\x00\x00\x00\x00\x00\x8b\x00\x00\x00\x00\x00\x00\x00\xc0\x00\x00\x00\x00\x00\x00\x00\xc1\x00\x00\x00\x00\x00\x00\x00\xc2\x00\x00\x00\x00\x00\x00\x00\xc3\x00\x00\x00\x00\x00\x00\x00\xc8\x00\x00\x00\x00\x00\x00\x00\xc9\x00\x00\x00\x00\x00\x00\x00\xca\x00\x00\x00\x00\x00\x00\x00\xcb\x00\x00\x00\x00\x00\x00\x00\xd0\x00\x00\x00\x00\x00\x00\x00\xd1\x00\x00\x00\x00\x00\x00\x00\xd2\x00\x00\x00\x00\x00\x00\x00\xd3\x00\x00\x00\x00\x00\x00\x00'
p1116
tp1117
bsg1052
Nstp1118
Rp1119
a(lp1120
g1032
(g1033
(I0
tp1121
g1035
tp1122
Rp1123
(I1
(I5
I52
tp1124
g1077
I00
S'\x01`\xe27\x0b\xd9\xd6\xbf\xe13\x1725V\xd7\xbf\x86\x02\xd3\x8fi\xc0\xd7\xbfKO%$(7\xd5\xbfTIB\xe7\xac\xfd\xc9\xbfM\xf6\xa5s.\xaa\xcc\xbfj\x13\xfe\x04\xa7v\xd2\xbfuw\xaf6\x02\xd1\xd0\xbfy\xd7\xe6X\xc2\xc5\xdc\xbfe\xe06\x1c+\xe3\xd7\xbfL\xb1uV\xd3\x84\xdd\xbf9\\\xe7\xd7e\xcf\xdc\xbf\xdd\xa5\xc6\xa7\x8dv\xde\xbfFx\xd15\xf7Q\xdc\xbf\xfb\x05Z\xf9q\xea\xdc\xbf\xbb\xfa\xc6\xbaZx\xdd\xbf\x00\xbf\xc3.}n\xd7\xbf\x89\x8b\xbc\xbd\x86\xbc\xd9\xbfV\xe2\xb7r\xfaw\xdd\xbf\xcc\xfem\nc-\xde\xbf\xd3O\xb4_\xf0\xcf\xd8\xbf1\x0f\xf1Z\xc00\xd8\xbf\x80\xe4Y|\x9d"\xdd\xbf)&\xc5\xf9\xbe\xba\xdd\xbf\xd1U\x8ew\x93\x15\xdd\xbf\x91eu\xa2\xff\xd4\xdb\xbf\xb3\xf7\x07\x9d*x\xdc\xbf\xbf\xb8|\xcc\xfa\xef\xdd\xbf\xcc\xd8\xa9\xdbH\xe9\xd2?D\xc9:"\xfeM\x97\xbf\xeb\xf7\x9d\xf1\x94j\xc2\xbf\x91e"\x14=v\xc9?vY(\xa8\xd9\x9c\xfd?B\xe6\xdb\xcbG\x90\xfd?\xc5\x9f\x8df\x08\xe7\xda?\x1d\xbd\xca:J^\xe9?\xbc9\xbb7x\xfc\x03@\nm\x05$\xec\xaf\x02@M\xdfO \xa1\xf5\x05@\xdbG\x89\x0eK\x1f\xfc?Rc\xf1\x83N\n\xd6\xbf\xc3(VP$\x84\xd5\xbf\xadb\xec.\t@\xce\xbf\xbb\xde\x97\x14\xab\xd2\xd2\xbf\xd8\xa2\x1e\xeeA)\xdc\xbfl\xf0Tx\x01m\xdb\xbf\xd84\x1f\x00&\xbe\xda\xbf5\xae\x18V\xf1\xec\xda\xbfB\xb0\xde0H\x16\xdf\xbfk\x9en;l5\xdf\xbf\xe0v\x93\x91\xe4O\xe0\xbf\xfc\xbfE\xa3\x9a\xdb\xdf\xbf:\x9b\t\x8c\x00\x95\x04@\xcb\xa6\xf6\xa5\x17\xba\xfd?\x1b\xa3o\xd4\xd4\x17\xf2?\xed\x14b8\xfaH\xf0?\x04\x92QGX\xf5\xc4\xbfB]\x87a@\x07\xd3\xbf\xbe\xfa{\t\xe1\x1a\xd2\xbfl\xfbE\xc9\xe9>\xc3\xbfg\x15\xbe\x98\x16|\xe5\xbf\x9cD\x82d\xc7\xf6\xe1\xbf}\xac\xb4\xf3\x114\xed\xbfg\xf1\n\x85 \x88\xe8\xbf\xe0\xac2Jm\xff\xeb\xbfU\xf03"\x02\'\xe8\xbf\xce\xff\xa7 sJ\xe2\xbf\xcc\x85\xf5r\xa4\xee\xe5\xbf\xd9\xdb\xc8\xef{\x15\xe1\xbf\x1e\xd3c_\xd5\xbd\xe5\xbf\xc6l/\xb1\x8b\xe9\xe9\xbf\xac\xc4\xd1f\x97\xa1\xec\xbfY\x16e\xa2\xd63\xe5\xbfM\xdd\t\x11sg\xe7\xbf\x018@;x\x9e\xe2\xbf\x06|@\x85kI\xe7\xbfl\xa2\xc9\x0c\xf4C\xf0\xbf\xd7\xe5\x81\xf9N\xb9\xec\xbf\\*\xeb&\x0f\xe1\xea\xbfpY\xda{\xf9\xf8\xee\xbf\xffA\x90Z\x11\x84\xfc?\xe7w\xf3%y\xbe\xf9?\xbe\xd5\x13\xd1\x88\xe6\xfd?%\xb6m\xe0\xfd\xae\xf8?\xd6ow\x0c\x92{\xf7?0\xfa\xef\x1a]\x18\xfd?Y%\xe2\x1f#\xf0\xfb?p.\xb2\xa6s\x8b\xf4?\xf4\x96\x80o\x98\x89\xd0?k\xd9\xb0\x95\xf0\xb5\xe5?\xa18\xd8\xea\xf9:\xfa?l\x96\x05fd\xda\xf4?5\xc9:\x11e1\xd6?\xdc\x14`\x18\xb30\xc7??Ju\xe7\x97\x1e\xd1?\xa8\xda\x88p\x88\x9b\xdb?\x81\x80\xffx\x18\xeb\xa0\xbf\xa7Rf\xf7A\x1f\x98\xbf\xf3l\xae\x95B)c?\x98\x8fP?,\\\x9a?\'>\x95\x8c*<\xe8\xbf\xd4(\x11\\\xf2\x8b\xe8\xbf)\xe7\x9a\xc6\xda\xf7\xed\xbf\xc4\xaf\xef\xabS\x9b\xec\xbf\x01w\xf0\'\x9a\xf8\xd1?\xa6\xdaO\'Ua\xf0?\xe3%H$cz\xe8?\x049FO\x1d\x16\xee?3%\xd4\xb9\x91\x93\xda?y\x08F\x98\xb2\xdc\xca?\\\xa2{\x9a\x89\xff\x85\xbf\xcd\x06\x8dl\x8c\xf5\xc0?\xd7b^\x9b\x98\xbc\xe6\xbf\x86\x89\xc1~<<\xe1\xbf(\x98\\=\xa2X\xe6\xbf\'\xf0;B\xa2\x86\xe2\xbf>\xf3u\xc3\x1d\x9f\xe5\xbf\x8f\xf6\x03\xcc!\xf0\xde\xbfZ\xd3,\x85;1\xe6\xbf\xab~n\xd8\xebE\xea\xbf)\xbe\xc4\xf3\ry\xd6?\xbdrK\xd7\xcf$\xbd?\xc0\x84\x1d\x85\x10\xa0\xd5\xbf\x89\xec\xd2\xe5\xccI\xd8\xbf\x0c\xfb\xa7>\xfa\xbe\xe0\xbf#\x9f\xa8\x9b\xc5:\xe2\xbf4,?\xa8\xd5\xe8\xdc\xbf\xc9\x1e\xe2k\xfb\xf8\xde\xbf\x9d#b{\x82d\xdb\xbfT\x9d6\xce\x196\xce\xbf\x1d\x95c\x1b\xa1!\xb6\xbf.\xac\xe7\xa4\xb2\xa6\xd1\xbfN\xfd0\x1b\xa8@\xd9?u\xe0xhB\xd5\xac?\x9eu\xab\xb6z\x1e\xcd\xbfY\x97\x9c<\xdc\x8d\xc3?\xf0F\x1e`\xc7i\xe9?\xa28\x05\xd9Le\xe0?%\xdf \xf8\xf5\x1e\xac?\xc1\xa8\x00\xb2\xc0\xca\xe3?\xf6\xd3\xae`\xbd\xed\xfd?,@\xafX\xf52\xfd?(\xe9\x86\xe1e\x13\xf7?1\'\x80\x9cV+\xf2?\x95\' e\x96v\xc5\xbfL\r\x18\x1ag\xd3\xca\xbf"c\xf6\x07\xbf/\x90?\x9c\x86\x8c\xe1\xa4\x92\xa9\xbf,2\xf6\xc7D\x7f\xd5\xbf\xc1\x97`\x88x\xfb\xd2\xbf\xaf<\xd2\xe5\x94\xb8\xb9\xbf\xc0\x88\x0e\xea\xc1\xfe\xc4\xbf\xbdY\xbe\xd1\x01a\xe9\xbf\xc4\xf9]?r\xf0\xe8\xbf{V\xeaJ\x8a\n\xec\xbfa\x10\x1c\xc5\x14\xcd\xeb\xbf\xd6\x9bK\xaf\xa2\xdc\xfe\xbfM\xb0${+\xea\xfc\xbf\xa6\xf0`\x84\x8a\xa2\xeb\xbf\x98\xdc\xd4\xcc+a\xea\xbf)\x12\xb7s\xe1\x05\xe7?\x9b\x886\xe5\xba%\xf0?w!\xa4\x1da:\xf4?\x83\xa2\xc2\xf2hs\xf0?\x17\xbe4\xea\x1f~\xed?\x85\x84}\xc1\xc1\xb7\xe2?\xa3\x08\x83p\x1a\xae\xf4?\x03\x14E|\xcc\xa5\xe7?\xfa7{\xd0\xc0\xbb\xea?n\xcd\t\x8b\xa2\x8a\xcf?\xd0\xb1\xf2\xb1(\x9e\xd3?%\x9d\x1e\xf8\xfe\t\xea?\xa0\xf7-\xee\x03\xc8\xf0?\xe8R\t\x12\x15s\xf6?\xe2\x03\xd3\x1cTn\xf0?\x0b\xea\xed\xb01;\xf7?\xcf`\'\x808\x08\xe5?\xea\x1b\x05\x83-)\xf0?B4\xe6\rQh\xe6?\xacA*\x99\xc8c\xf2?R\xcf\xa9\x1d\x07\xea\xe6?\x14\xbd\x81\x01\x9e\x9c\xcf?\xdc\x05H+:\'\xcc?\xfa\x167\x9a\xde\x9a\xe5?\x8dE\x93\x83PK\x04\xc0\x1f\xe5b\x96\xc6w\x05\xc0\x87\x98\xfd\xa3~\x84\x04\xc0^\xe9W7\xaaL\x03\xc0\xbb\xda5h\xc2@\x00\xc0C`\x99\xd4\rD\x03\xc0o\x88\xfbq\xe8\x8d\x04\xc0\xff\xf1e\xf2\x8f\xd6\xfd\xbf\xa8\xc0\x02\xb5\xee\x82\xcd\xbf\xae\x9cY^\xa7B\xe3\xbfT\xdd\x18\xe6\x15A\xfd\xbf&iS\xd9D\xcb\xfe\xbf\x16\x84\xf4\xac\xa6O\xd6?\xbb\x7f\xec\x8d^\xb0\xe5?\n\xb5\xe8\xd7\x9d\x9c\xe0?\xd6Gd\xde\x9f\x07\xa0?\x82"\xc8TK\xd2\xe5\xbf\xe0\xc5\xc0\xe4\xb8\xd7\xf4\xbf\t\x18\xd0P\x8a\xfa\xf4\xbf\xd5\xe0\n\x80\xc1F\xe6\xbf\xf7\xa1/\xedZ]\xe5\xbf\x1b,\xd6\x9d\x9b\x8e\xc5\xbf{\x7f]-\x88Y\xa9\xbf\xb1M\xc3r\x84\x06\xe5\xbf:\xde\xe1\xc3\xd5k\xcc\xbf\xe1\x9a\xda\xcf\x08\x0e\xd0\xbfV\xcek\x84\x03\x8c\xd5\xbf\xcb\x14\xcd#{\xfe\xbe\xbf\xa32\xe0\xc3Nr\xe1\xbf\x9e\x8aN\x98-.\xe3\xbf\xbd\xacE\x1d\x03S\xe5\xbf`\x88\x9aI\x9dl\xe5\xbf\x9a\xc3J\xe9\x8b{\xe7\xbf\x85|\x01\x1e\xd6\xb9\xe6\xbf\xf8\\\xc4\x02C\xd2\xe7\xbf\xc2\xb3O\xbe\xfai\xe8\xbf]\xc3\x0b\xdd\xa7\xad\xe5\xbf,1\x07\xaa\xa1z\xe4\xbf\x13\xb5<j,\x1c\xe8\xbf\x04\x06\xefFiu\xe7\xbf\x90\xe2`\x01\xbf\xbf\xd5\xbf;\xc3\x11\r/\xfe\xda\xbf2\x85\x95\xfd\x95\x8e\xdc\xbf\x8ay\xbc\xc9\xa3"\xe1\xbf\xf7\xfc\xeb\x94\xbc\x85\xe0\xbfF\xec\xc6\xea\xb3\xa4\xe2\xbf.\xf3\x06\xcb%3\xe0\xbf\x18\x96\x03\x89\xcbH\xe1\xbf2\xb3:\x8a\xdaW\xd4\xbfl\xf6\xc2\xeey\xd5\xc9\xbf\x02\x05\xd7l\x04X\xc3\xbfA\x0f\x0b\xa7sQ\xcc\xbf\x84\xe1\x89\x00{u\x02@\xf3GiLS\x93\x01@\xa8\xe6y\xc0e&\xfe?\x9a+\xe3\n\xdfA\xfe?\x8f\x1b\xb2\xd7\xf9\x98\xfc?\xd5\xc0\n\x8dg_\x00@wq\xef\xe5\xc0\xfa\xfe?\xa5u\xba\'\xf6\x06\xfc?\x04\xe8\xff!\xe1\x9c\xfe?\xc0\xc1-\x83o\xa7\xfd?r\x8f\x15[I\xdf\x04@7\xea\x87\xabO>\x05@\x02\x03\xf4\xe1\xf1\x9e\xd9\xbfy\x03:r\xc0P\xda\xbf\x01\x90\x861%k\xce\xbf\x8f+\x02\xb4\xa2\xf7\xd2\xbfWu\xe2-\x98\xa2\xe1\xbf\x18\xa6E\x9e3i\xe4\xbf]\xc4vD5\xc8\xe1\xbf/$9~@\xfc\xdd\xbf\xbc\x87f\xa7#}\xe6\xbf\x9b0\xac\x0cP\xfa\xe4\xbf\xdb4\xa3\xb9\x11\xc7\xe6\xbfd\xbc@.\xc9\xb9\xe7\xbf'
p1125
tp1126
ba(lp1127
g1028
(g1029
(dp1128
g1031
g1032
(g1033
(I0
tp1129
g1035
tp1130
Rp1131
(I1
(I5
tp1132
g1042
I00
(lp1133
g1046
ag1047
ag1048
ag1049
ag1050
atp1134
bsg1052
Nstp1135
Rp1136
a(dp1137
g1093
(dp1138
g1095
g1110
sg1096
(lp1139
(dp1140
g1099
g1102
sg1103
g1123
sasstp1141
bsbag1013
(g1014
g1015
Ntp1142
Rp1143
(dp1144
g1019
g1020
sg1021
g1022
sg1023
g1013
(g1024
g1015
Ntp1145
Rp1146
((lp1147
g1054
ag1028
(g1055
(dp1148
g1031
g1032
(g1033
(I0
tp1149
g1035
tp1150
Rp1151
(I1
(I48
tp1152
g1063
I00
S'0\x00\x00\x00\x00\x00\x00\x001\x00\x00\x00\x00\x00\x00\x002\x00\x00\x00\x00\x00\x00\x003\x00\x00\x00\x00\x00\x00\x008\x00\x00\x00\x00\x00\x00\x009\x00\x00\x00\x00\x00\x00\x00:\x00\x00\x00\x00\x00\x00\x00;\x00\x00\x00\x00\x00\x00\x00@\x00\x00\x00\x00\x00\x00\x00A\x00\x00\x00\x00\x00\x00\x00B\x00\x00\x00\x00\x00\x00\x00C\x00\x00\x00\x00\x00\x00\x00|\x00\x00\x00\x00\x00\x00\x00}\x00\x00\x00\x00\x00\x00\x00~\x00\x00\x00\x00\x00\x00\x00\x7f\x00\x00\x00\x00\x00\x00\x00\x84\x00\x00\x00\x00\x00\x00\x00\x85\x00\x00\x00\x00\x00\x00\x00\x86\x00\x00\x00\x00\x00\x00\x00\x87\x00\x00\x00\x00\x00\x00\x00\x8c\x00\x00\x00\x00\x00\x00\x00\x8d\x00\x00\x00\x00\x00\x00\x00\x8e\x00\x00\x00\x00\x00\x00\x00\x8f\x00\x00\x00\x00\x00\x00\x00\xa8\x00\x00\x00\x00\x00\x00\x00\xa9\x00\x00\x00\x00\x00\x00\x00\xaa\x00\x00\x00\x00\x00\x00\x00\xab\x00\x00\x00\x00\x00\x00\x00\xac\x00\x00\x00\x00\x00\x00\x00\xad\x00\x00\x00\x00\x00\x00\x00\xae\x00\x00\x00\x00\x00\x00\x00\xaf\x00\x00\x00\x00\x00\x00\x00\xb0\x00\x00\x00\x00\x00\x00\x00\xb1\x00\x00\x00\x00\x00\x00\x00\xb2\x00\x00\x00\x00\x00\x00\x00\xb3\x00\x00\x00\x00\x00\x00\x00\xb4\x00\x00\x00\x00\x00\x00\x00\xb5\x00\x00\x00\x00\x00\x00\x00\xb6\x00\x00\x00\x00\x00\x00\x00\xb7\x00\x00\x00\x00\x00\x00\x00\xb8\x00\x00\x00\x00\x00\x00\x00\xb9\x00\x00\x00\x00\x00\x00\x00\xba\x00\x00\x00\x00\x00\x00\x00\xbb\x00\x00\x00\x00\x00\x00\x00\xbc\x00\x00\x00\x00\x00\x00\x00\xbd\x00\x00\x00\x00\x00\x00\x00\xbe\x00\x00\x00\x00\x00\x00\x00\xbf\x00\x00\x00\x00\x00\x00\x00'
p1153
tp1154
bsg1052
Nstp1155
Rp1156
a(lp1157
g1032
(g1033
(I0
tp1158
g1035
tp1159
Rp1160
(I1
(I5
I48
tp1161
g1077
I00
S'\x1b]\xf1r\xfe-\xd6\xbf\xbb\xeaZ\x88\xf7\xcf\xd1\xbf\x84\xf5\xca\xfc\xeb\xe4\xdb\xbf\xd8\x82\x0f\xea\xd2`\xde\xbf 7\xb0;\xc15\xde\xbf\xc2Gy\xedJ\xb4\xdd\xbf\x9e\xa9\xb5*\xa5\xb6\xde\xbf\xcf\x82\x0b\\\x7f\x1e\xdd\xbf\x87\xc6o\xc2\xe0#\xdd\xbf/\xac\xe56\xf1\xda\xda\xbf\xf1B\xa1>)\xbb\xdc\xbf#\x0e\x9ei\x97\xb4\xdb\xbf=u9`\xbc7\xd5\xbf\xa9\x1f\x13\xb0\x7f\x98\xc6\xbf\xe8\x06e\x01\x9e|\xd6\xbf#\xd9qK\x08\x95\xd3\xbf! e]\x0eO\xd0\xbf\x06<\xf8H.\xee\xd5\xbfy\xd4\xa0\x14w\x8b\xd5\xbfv\x11\x97z\xf9\xd9\xd9\xbf\xb8 \x03\xc3\xd0\xce\xdd\xbf\xec\xcf\xf0\xaf\xe9L\xdb\xbf\x02x \xa2\xd1\x82\xde\xbf\x11\x0b\xa7\x11\x98\x1c\xde\xbf\x1aB\xf5X\xa1\x83\xd1\xbf\x99\x087\\(\xcd\xd0\xbf\xcb\x99 \xc6\x9f\xa0\xd7\xbf\x12\xc7\x06\x06l;\xd6\xbf\xe5-x\xa5\xd6\x82\xd5\xbf@\x1e\xf8uV\xca\xd3\xbfR\x1c\xd8%f\x1e\xdd\xbf]\x07\x945CD\xdc\xbfq\x86\x80\xf8\rr\xd6\xbf\xd7\xbaa\xb5.4\xd7\xbfy#\xb8f\x1e\x9e\xd1\xbf\xdc\xe9\x05\xea^~\xcb\xbf\x87@\xafI\xb3+\xdc\xbfu\x9bY\r.K\xd9\xbfN\xcb\x96\xcf\xf0\x7f\xdf\xbf\xd9 _\xc2\xdc\xaf\xdd\xbf\xfdl\x87\x89\xb5\\\xd2\xbf\x82\x93\xbe\xce:I\xd7\xbf\xae\xd4o\x1eOr\xd6\xbf\x83\xee\xc2\xb5\xde\xec\xd7\xbf\xa2\xa5\xefP\xa0\xfe\xd8\xbf\xd99|\x00Jk\xdb\xbf.\xf2\xf9\xe9\x01\x91\xdf\xbf\x91|\xbdwEY\xde\xbf\x8ej\xe5cu\xd0\xe1\xbf\x11U!\x8b\x80W\xd3\xbfu\x0c\x0e\xab.h\xdf\xbf\xcf3\x87\x97\x8f\x9d\xe4\xbf\x01)|\x91\xef4\xee\xbf+\x00\xcc\x99M\xa9\xea\xbf\x96\xc1\xaaG\xe5\x82\xeb\xbf\x01\xf0s8\xb0L\xe6\xbf\xd6\xa0<\xb0p3\xed\xbf\xa9K#\xa7\x14h\xe9\xbfS\xf7\xad\xb3\xce\x14\xef\xbf\x9b\xc9h\xf1\xf2\x8b\xea\xbf\xe5\xcb\xd7z\xa3o\xc9\xbf"\xf0\x80\x06j#\xd0\xbf\xa8$/Su$\xd6\xbf\xb7d5\xb5\x80V\xce\xbf\xc2a\x8d\x98G\xb2\xe3\xbf$Q%\x81u\xea\xe5\xbf\xd4\xb57=s\x1d\xe0\xbf\xe6\x18\xf7\x8e\xb3\x95\xe2\xbf\xc4i\xffE\xf2\xf5\xed\xbf\xfd\xa1\x84/on\xe9\xbf7t\x19\xdeF{\xe8\xbf\x81\x13-\xf7f\x87\xe2\xbfB\x94)$\x8a\xe5\x9f\xbf[\x90\xa3y:O\x96\xbf=W\x88\xb3\xc22\xa3\xbfc\xf4\x06Z\xad\xf4\xb2\xbf\x97e\xef\x8a\xc2M\xe6\xbf\xa2\xb9\xdf\x1f9a\xe8\xbf\xc7R\x9e\xe1\xe5\xb3\xe4\xbf\xf8r?\x93\xce\xa1\xe9\xbf\xb276W0\xdc\xba\xbf\xf4\xcd\xdc\x8c\xc3\x1c\xca\xbf]uC\xd1\x81\xa4\xa3\xbf\x87\xb2\x8b\xd7\xaf\x18\xc6\xbfK\xd9e_W\xf9\xe2\xbf\xe1\xfe\r\r\x90\xf5\xe4\xbf\x0b\xc4\xd2 \x15i\xed\xbfW\x07\x91\x93Q\xc1\xe6\xbf\x01NRR\xceq\xcd\xbf"x\xd4\n\x01\xf8\xce\xbf\x90q\xa1\x99\'\x7f\xda\xbf\xe3\xe4Hb\x9e\x99\xe0\xbf\xd2\x80\xcd\xa5\x9b\x93\xec\xbf\x1a\x8f%\xd9QP\xf0\xbff\x14P[Q|\xf0\xbf\x9b\xb6\x02\x8c\xa4\x8c\xec\xbff\xe0\x8d0cI\x94?M^\x8bW\xff\xba\xe0?\x19\x8e]\xc2\xbbv\xd6\xbf\x9a\xce\x97cN\n\xe0\xbf\xb9\xd5\t\xf7\x0e]\xe6\xbfx \xadi\x91\xdf\xe4\xbf\x06:H\xa6>\xa6\xe7\xbf\x06>\x1eA>\x1f\xe2\xbf\x8f\xb5\xb4\xb1\xf4\t\xea\xbf\xc7\n\x14\xf6\x87\xf7\xe4\xbf\xd2\xfd@C\x15\x9d\xe2\xbf\'A>o\xeb\x02\xdf\xbf\x0b\xd7\x88=\xeb\xcd\xc9\xbf\x81\xd5\x11\x11\xa3|\xd5\xbff\x1c\xe7\x1e\xb0J\xd2\xbf~\xdfu\x97\xfab\xa2\xbfG\x0c\x19\x91d]\xe7\xbf\xf0\xdf\xb0\x87\xd2Y\xeb\xbf\xfb\x17(\x8b\xf6\xaa\xe8\xbfzj\xaa\xa9k\x90\xed\xbfDZ\xf3\xdc\xd2\x97\xec\xbf^E\xeb\xe9\t2\xeb\xbf{\xe6R.\x88\xa6\xea\xbf\x92K:\xbb\xee\xb6\xe8\xbf\x02\x82\x84\xefvp\xb0\xbf\xbe\xcb\xbdP\x06\xa2\xa9\xbf\xd8L\xf9\xc3\xf7\xaf\xd6\xbf$\xa5\xac\xb4l\xac\xd7\xbf\x10\x1e\xc5\xebX1\xe2\xbfA7P\xeb\x8e\xc9\xe5\xbf\x98)\x12\xdb\x1f\xb9\xe8\xbf\xce)\xda\\\xa4\xfe\xeb\xbf\x98V\x97\xc0-\x81\xa3\xbf<[,qW\x02\xbd\xbf\xc7\xfc\xdc\xe9\xcd\x85\xb3?WM\xab`P\xb8\xc7?^\xfd&\xe3\xe0\xe8\xe4\xbf\x03\xa3\x98\xecG\xa0\xe4\xbfq\xa9Q\xfe\xc1\x11\xe7\xbf\xf7f}\xb2\xca\xdc\xdd\xbfAdJ7k\xa1\xd1\xbf\x87\x06\x12f-\xbb\xd9\xbf\x7f\xd8\x90\xf0\x101\xd1\xbf:\xaf\xf3\xa6\xeb\x7f\xd9\xbf\x83\xdeD\xce\x90\x80\xd4\xbf\x02\xedc\xce\x9d\x89\xdf\xbf=4l\xdc\xf9\x11\xe8\xbff\x0e\rg4\xf0\xe4\xbf\x17.\xdb\x81\xaaF\xf3?\x81\x1b\r\x12\xcc\xfe\xe5?\x80\x0b\xef2\xd0\x8b\xec?\xca\x0e\x0ecE\x93\xf5?Al\x17D#D\xf2?\x93d\xf8nn\xb0\xeb?C\xec{\xc2\x9e\x11\xf6?\xfeH\xdc\xb1\x87\xfb\xef?\xc8\xf5\xe6\'\xf2B\xe7?\xc3\xea\x7f\xe9kM\xc8?7\n\x05\xd1c]\xf0?\xa8|\xfe\xa8p\x07\xe0?zF/\xbaO\xad\xd6\xbf\x8a\x83UD\x99F\xbb?\x1a\xa8\xe5\x83\x12k\xe5?\xa0+\xfa\xa9\x15\x9d\xc7?\x02\x1e\xc5*_\x0c\xd2\xbf\\\xaf\xd3\xdeY\xbd\xc1\xbf\x81\xe7sR\x81b\xda\xbf\xe9\xa3\xbc\xf7\x99%\xb7\xbf\xc2\xdf\x8f\xcf\xa4\x98\xea?\x86\xf4\x03\xd6\xe4I\xe0?\xac^/P\x9e\xbf\xea?[\xc1\x99!\xf6\x0c\xdf?l.\xc8QB\x1d\xe0\xbf\x8215\xa0\x13(\xfd\xbe\x0e/]0;\xfb\xe0\xbfuC\xd9\x13\x07\xc8\xc5\xbf\xa6\x96x\xa8\xa8\x8a\xdc?nNu\x94cF\xf0?U\x1f.a\xef\xae\xe7????\x0bVc\xf4?\xad]j@"\x8f\xdd\xbfJ\x05\xc8s8l\xba?\x03\xd6#\xe4\x87\xc9\xe0\xbf3\xbf\xa5\xeb\x06\x83\xbf?b\x0c\x8b\x04\xb7|\xc2?\xe4\xec\xfao\x02\xb7\xe5?F\xcc\x96c\x815\xf5?qE\xf30.\x99\xe5?<\x10\xdd\x14^X\xc8?=]8C&\x1a\xc0\xbf<A\xc1\x19bV\xbf?J\xb8\xbb\x1fY\x8b\xe0?\xe2\xcc\xda\xd3\xab\xe9\xc4?\xc9\xd63\xcc\xbc!\xe1?I\xfbV&\xd08\xf0?g\xd0\xec5\xa7\x12\xe0?L\x9b\xca\xc9^\xbf\xd7\xbf\xc5\x8dPP\xbc\xb1\xce\xbf\xd8F>\xabk(\xe0\xbf}:_\x15\x16\x01\xe2\xbf\xf1\xb4\x08\xfcH\x82\xe2\xbf\x104\xcaj\x1d\xc3\xe0\xbf\x02\xeb\x8d\xd26\x1e\xe6\xbf\xf31\xe60\xa1}\xe6\xbfy\x82\x8c\xbb\x7f\x03\xdf\xbfJ\x96\xff\xd7\x13\xab\xd9\xbf\xa4\xa7v\x12\xfd1\xdb\xbf\xb2\xb1\xb1\xda\x0f\xf4\xd8\xbfy#G\xbc2_\xd9\xbf\x14\xa4\xddy\xb0\xfe\xdc\xbf\xc5 \x15\x8d\xdc\x86\xd2\xbfa\xbc\xdaPiY\xc9\xbf\xee\x1c\x7f5\xe4|\xe6\xbf\x0eU<\xef\xac\x8c\xe6\xbf\x98I\xceF(C\xe8\xbfp`\xb8\xa5*\x17\xe9\xbfO\xff\xbf\xd1e\xc5\xa0?\xc7Ab\x8d\xfc\xd0\xbd?H\xbdr\xbb\x82\x81\xca?6#\xd45\xc9\xe6\xd1?U\xb0\xb5\x03\xa8^\xe1\xbf\xc8;p\xa5{\xeb\xdb\xbf\xba\xc8\x1f\xb1~B\xe5\xbfH\xc8x\x7f\xe9f\xe2\xbf|-\x0b"\x9c\xe8\xe4\xbf\x9c\x14\xdb}@\xe6\xe6\xbf%\xf4M%\t\x14\xec\xbf\xea\xa2\x1a\xcd^\xfb\xec\xbf\x81\xabK#,\xe2\xe3\xbf\xbeF\xa5\x13[\xf0\xe1\xbf\xa7\xb8\xac=1\x89\xe3\xbf\x15\x9bALv\xcb\xd9\xbf\xd4\xfen\rZA\xe7\xbf\x81\xe3u\xb6\xcf\x94\xe3\xbf\x9a\xeb\xd7\xb4!\t\xe8\xbf#\x84iBm\x81\xe4\xbf\xe7\x1a\xe9\xe6z\x18\xe0?\xe9\xc3\x13\x94~\x1d\xe2?\x99\x1c\xdc\x15^Q\xe0?\x02,\xe1\xec<\xb8\xd1?\xf7\xe1\xe7\x08\x94\xbb\xdf\xbf\x8f\x9d\n\x05q\xda\xe0\xbf\x98\xd4\xd9f2\xab\xe6\xbf\x00\x02\x03zk\x0e\xe5\xbf'
p1162
tp1163
ba(lp1164
g1028
(g1029
(dp1165
g1031
g1032
(g1033
(I0
tp1166
g1035
tp1167
Rp1168
(I1
(I5
tp1169
g1042
I00
(lp1170
g1046
ag1047
ag1048
ag1049
ag1050
atp1171
bsg1052
Nstp1172
Rp1173
a(dp1174
g1093
(dp1175
g1095
g1147
sg1096
(lp1176
(dp1177
g1099
g1102
sg1103
g1160
sasstp1178
bsba.